
Attiny1624 SUN sensor v2.elf:     file format elf32-avr

Sections:
Idx Name          Size      VMA       LMA       File off  Algn
  0 .data         0000014a  00803800  0000367a  0000372e  2**0
                  CONTENTS, ALLOC, LOAD, DATA
  1 .text         000035f6  00000000  00000000  000000b4  2**1
                  CONTENTS, ALLOC, LOAD, READONLY, CODE
  2 .rodata       00000084  0000b5f6  000035f6  000036aa  2**0
                  CONTENTS, ALLOC, LOAD, READONLY, DATA
  3 .bss          00000076  0080394a  0080394a  00003878  2**0
                  ALLOC
  4 .comment      0000005c  00000000  00000000  00003878  2**0
                  CONTENTS, READONLY
  5 .note.gnu.avr.deviceinfo 00000040  00000000  00000000  000038d4  2**2
                  CONTENTS, READONLY
  6 .debug_aranges 000001b8  00000000  00000000  00003914  2**0
                  CONTENTS, READONLY, DEBUGGING
  7 .debug_info   00004b48  00000000  00000000  00003acc  2**0
                  CONTENTS, READONLY, DEBUGGING
  8 .debug_abbrev 00002775  00000000  00000000  00008614  2**0
                  CONTENTS, READONLY, DEBUGGING
  9 .debug_line   000014bc  00000000  00000000  0000ad89  2**0
                  CONTENTS, READONLY, DEBUGGING
 10 .debug_frame  00000680  00000000  00000000  0000c248  2**2
                  CONTENTS, READONLY, DEBUGGING
 11 .debug_str    0000224c  00000000  00000000  0000c8c8  2**0
                  CONTENTS, READONLY, DEBUGGING
 12 .debug_loc    00001eed  00000000  00000000  0000eb14  2**0
                  CONTENTS, READONLY, DEBUGGING
 13 .debug_ranges 000001b8  00000000  00000000  00010a01  2**0
                  CONTENTS, READONLY, DEBUGGING

Disassembly of section .text:

00000000 <__vectors>:
       0:	0c 94 12 01 	jmp	0x224	; 0x224 <__ctors_end>
       4:	0c 94 2f 01 	jmp	0x25e	; 0x25e <__bad_interrupt>
       8:	0c 94 2f 01 	jmp	0x25e	; 0x25e <__bad_interrupt>
       c:	0c 94 f5 0e 	jmp	0x1dea	; 0x1dea <__vector_3>
      10:	0c 94 2f 01 	jmp	0x25e	; 0x25e <__bad_interrupt>
      14:	0c 94 2f 01 	jmp	0x25e	; 0x25e <__bad_interrupt>
      18:	0c 94 2f 01 	jmp	0x25e	; 0x25e <__bad_interrupt>
      1c:	0c 94 2f 01 	jmp	0x25e	; 0x25e <__bad_interrupt>
      20:	0c 94 2f 01 	jmp	0x25e	; 0x25e <__bad_interrupt>
      24:	0c 94 2f 01 	jmp	0x25e	; 0x25e <__bad_interrupt>
      28:	0c 94 2f 01 	jmp	0x25e	; 0x25e <__bad_interrupt>
      2c:	0c 94 2f 01 	jmp	0x25e	; 0x25e <__bad_interrupt>
      30:	0c 94 2f 01 	jmp	0x25e	; 0x25e <__bad_interrupt>
      34:	0c 94 2f 01 	jmp	0x25e	; 0x25e <__bad_interrupt>
      38:	0c 94 2f 01 	jmp	0x25e	; 0x25e <__bad_interrupt>
      3c:	0c 94 2f 01 	jmp	0x25e	; 0x25e <__bad_interrupt>
      40:	0c 94 2f 01 	jmp	0x25e	; 0x25e <__bad_interrupt>
      44:	0c 94 2f 01 	jmp	0x25e	; 0x25e <__bad_interrupt>
      48:	0c 94 2f 01 	jmp	0x25e	; 0x25e <__bad_interrupt>
      4c:	0c 94 2f 01 	jmp	0x25e	; 0x25e <__bad_interrupt>
      50:	0c 94 2f 01 	jmp	0x25e	; 0x25e <__bad_interrupt>
      54:	0c 94 2f 01 	jmp	0x25e	; 0x25e <__bad_interrupt>
      58:	0c 94 2f 01 	jmp	0x25e	; 0x25e <__bad_interrupt>
      5c:	0c 94 2f 01 	jmp	0x25e	; 0x25e <__bad_interrupt>
      60:	0c 94 2f 01 	jmp	0x25e	; 0x25e <__bad_interrupt>
      64:	0c 94 2f 01 	jmp	0x25e	; 0x25e <__bad_interrupt>
      68:	0c 94 2f 01 	jmp	0x25e	; 0x25e <__bad_interrupt>
      6c:	0c 94 2f 01 	jmp	0x25e	; 0x25e <__bad_interrupt>
      70:	0c 94 2f 01 	jmp	0x25e	; 0x25e <__bad_interrupt>
      74:	0c 94 2f 01 	jmp	0x25e	; 0x25e <__bad_interrupt>
      78:	03 6e       	ori	r16, 0xE3	; 227
      7a:	db 36       	cpi	r29, 0x6B	; 107
      7c:	3d 9a       	sbi	0x07, 5	; 7
      7e:	99 99       	sbic	0x13, 1	; 19
      80:	99 3d       	cpi	r25, 0xD9	; 217
      82:	ab aa       	std	Y+51, r10	; 0x33
      84:	aa 2a       	or	r10, r26
      86:	3e 00       	.word	0x003e	; ????
      88:	00 00       	nop
      8a:	80 3f       	cpi	r24, 0xF0	; 240
      8c:	08 4a       	sbci	r16, 0xA8	; 168
      8e:	d7 3b       	cpi	r29, 0xB7	; 183
      90:	3b ce       	rjmp	.-906    	; 0xfffffd08 <__eeprom_end+0xff7efd08>
      92:	01 6e       	ori	r16, 0xE1	; 225
      94:	84 bc       	out	0x24, r8	; 36
      96:	bf fd       	.word	0xfdbf	; ????
      98:	c1 2f       	mov	r28, r17
      9a:	3d 6c       	ori	r19, 0xCD	; 205
      9c:	74 31       	cpi	r23, 0x14	; 20
      9e:	9a bd       	out	0x2a, r25	; 42
      a0:	56 83       	std	Z+6, r21	; 0x06
      a2:	3d da       	rcall	.-2950   	; 0xfffff51e <__eeprom_end+0xff7ef51e>
      a4:	3d 00       	.word	0x003d	; ????
      a6:	c7 7f       	andi	r28, 0xF7	; 247
      a8:	11 be       	out	0x31, r1	; 49
      aa:	d9 e4       	ldi	r29, 0x49	; 73
      ac:	bb 4c       	sbci	r27, 0xCB	; 203
      ae:	3e 91       	ld	r19, -X
      b0:	6b aa       	std	Y+51, r6	; 0x33
      b2:	aa be       	out	0x3a, r10	; 58
      b4:	00 00       	nop
      b6:	00 80       	ld	r0, Z
      b8:	3f 07       	cpc	r19, r31
      ba:	2c 7a       	andi	r18, 0xAC	; 172
      bc:	a5 ba       	out	0x15, r10	; 21
      be:	6c c5       	rjmp	.+2776   	; 0xb98 <calculate_solar_position+0x350>
      c0:	90 da       	rcall	.-2784   	; 0xfffff5e2 <__eeprom_end+0xff7ef5e2>
      c2:	3b 93       	.word	0x933b	; ????
      c4:	65 fc       	sbrc	r6, 5
      c6:	8b bc       	out	0x2b, r8	; 43
      c8:	53 f8       	bld	r5, 3
      ca:	10 fd       	sbrc	r17, 0
      cc:	3c 56       	subi	r19, 0x6C	; 108
      ce:	92 83       	std	Z+2, r25	; 0x02
      d0:	4d bd       	out	0x2d, r20	; 45
      d2:	87 9d       	mul	r24, r7
      d4:	3a b6       	in	r3, 0x3a	; 58
      d6:	3d cb       	rjmp	.-2438   	; 0xfffff752 <__eeprom_end+0xff7ef752>
      d8:	c9 bf       	out	0x39, r28	; 57
      da:	5b be       	out	0x3b, r5	; 59
      dc:	73 da       	rcall	.-2842   	; 0xfffff5c4 <__eeprom_end+0xff7ef5c4>
      de:	0f c9       	rjmp	.-3554   	; 0xfffff2fe <__eeprom_end+0xff7ef2fe>
      e0:	3f 05       	cpc	r19, r15
      e2:	a8 4c       	sbci	r26, 0xC8	; 200
      e4:	cd b2       	in	r12, 0x1d	; 29
      e6:	d4 4e       	sbci	r29, 0xE4	; 228
      e8:	b9 38       	cpi	r27, 0x89	; 137
      ea:	36 a9       	ldd	r19, Z+54	; 0x36
      ec:	02 0c       	add	r0, r2
      ee:	50 b9       	out	0x00, r21	; 0
      f0:	91 86       	std	Z+9, r9	; 0x09
      f2:	88 08       	sbc	r8, r8
      f4:	3c a6       	std	Y+44, r3	; 0x2c
      f6:	aa aa       	std	Y+50, r10	; 0x32
      f8:	2a be       	out	0x3a, r2	; 58
      fa:	00 00       	nop
      fc:	00 80       	ld	r0, Z
      fe:	3f 06       	cpc	r3, r31
     100:	64 ec       	ldi	r22, 0xC4	; 196
     102:	1b 3c       	cpi	r17, 0xCB	; 203
     104:	04 bc       	out	0x24, r0	; 36
     106:	16 3e       	cpi	r17, 0xE6	; 230
     108:	3b e5       	ldi	r19, 0x5B	; 91
     10a:	b9 3c       	cpi	r27, 0xC9	; 201
     10c:	c9 3c       	cpi	r28, 0xC9	; 201
     10e:	37 c2       	rjmp	.+1134   	; 0x57e <calculate_true_anomaly+0x54>
     110:	9e 5a       	subi	r25, 0xAE	; 174
     112:	3d 66       	ori	r19, 0x6D	; 109
     114:	04 98       	cbi	0x00, 4	; 0
     116:	08 3e       	cpi	r16, 0xE8	; 232
     118:	ea 69       	ori	r30, 0x9A	; 154
     11a:	aa aa       	std	Y+50, r10	; 0x32
     11c:	3e 00       	.word	0x003e	; ????
     11e:	00 00       	nop
     120:	80 3f       	cpi	r24, 0xF0	; 240

00000122 <__trampolines_end>:
     122:	6e 61       	ori	r22, 0x1E	; 30
     124:	6e 00       	.word	0x006e	; ????

00000126 <__c.2332>:
     126:	69 6e 66 00 00 40 7a 10 f3 5a 00 a0 72 4e 18 09     inf..@z..Z..rN..
     136:	00 10 a5 d4 e8 00 00 e8 76 48 17 00 00 e4 0b 54     ........vH.....T
     146:	02 00 00 ca 9a 3b 00 00 00 e1 f5 05 00 00 80 96     .....;..........
     156:	98 00 00 00 40 42 0f 00 00 00 a0 86 01 00 00 00     ....@B..........
     166:	10 27 00 00 00 00 e8 03 00 00 00 00 64 00 00 00     .'..........d...
     176:	00 00 0a 00 00 00 00 00 01 00 00 00 00 00 2c 76     ..............,v
     186:	d8 88 dc 67 4f 08 23 df c1 df ae 59 e1 b1 b7 96     ...gO.#....Y....
     196:	e5 e3 e4 53 c6 3a e6 51 99 76 96 e8 e6 c2 84 26     ...S.:.Q.v.....&
     1a6:	eb 89 8c 9b 62 ed 40 7c 6f fc ef bc 9c 9f 40 f2     ....b.@|o.....@.
     1b6:	ba a5 6f a5 f4 90 05 5a 2a f7 5c 93 6b 6c f9 67     ..o....Z*.\.kl.g
     1c6:	6d c1 1b fc e0 e4 0d 47 fe f5 20 e6 b5 00 d0 ed     m......G.. .....
     1d6:	90 2e 03 00 94 35 77 05 00 80 84 1e 08 00 00 20     .....5w........ 
     1e6:	4e 0a 00 00 00 c8 0c 33 33 33 33 0f 98 6e 12 83     N......3333..n..
     1f6:	11 41 ef 8d 21 14 89 3b e6 55 16 cf fe e6 db 18     .A..!..;.U......
     206:	d1 84 4b 38 1b f7 7c 1d 90 1d a4 bb e4 24 20 32     ..K8..|......$ 2
     216:	84 72 5e 22 81 00 c9 f1 24 ec a1 e5 3d 27           .r^"....$...='

00000224 <__ctors_end>:
     224:	11 24       	eor	r1, r1
     226:	1f be       	out	0x3f, r1	; 63
     228:	cf ef       	ldi	r28, 0xFF	; 255
     22a:	cd bf       	out	0x3d, r28	; 61
     22c:	df e3       	ldi	r29, 0x3F	; 63
     22e:	de bf       	out	0x3e, r29	; 62

00000230 <__do_copy_data>:
     230:	19 e3       	ldi	r17, 0x39	; 57
     232:	a0 e0       	ldi	r26, 0x00	; 0
     234:	b8 e3       	ldi	r27, 0x38	; 56
     236:	ea e7       	ldi	r30, 0x7A	; 122
     238:	f6 e3       	ldi	r31, 0x36	; 54
     23a:	02 c0       	rjmp	.+4      	; 0x240 <__do_copy_data+0x10>
     23c:	05 90       	lpm	r0, Z+
     23e:	0d 92       	st	X+, r0
     240:	aa 34       	cpi	r26, 0x4A	; 74
     242:	b1 07       	cpc	r27, r17
     244:	d9 f7       	brne	.-10     	; 0x23c <__do_copy_data+0xc>

00000246 <__do_clear_bss>:
     246:	29 e3       	ldi	r18, 0x39	; 57
     248:	aa e4       	ldi	r26, 0x4A	; 74
     24a:	b9 e3       	ldi	r27, 0x39	; 57
     24c:	01 c0       	rjmp	.+2      	; 0x250 <.do_clear_bss_start>

0000024e <.do_clear_bss_loop>:
     24e:	1d 92       	st	X+, r1

00000250 <.do_clear_bss_start>:
     250:	a0 3c       	cpi	r26, 0xC0	; 192
     252:	b2 07       	cpc	r27, r18
     254:	e1 f7       	brne	.-8      	; 0x24e <.do_clear_bss_loop>
     256:	0e 94 1f 0e 	call	0x1c3e	; 0x1c3e <main>
     25a:	0c 94 f9 1a 	jmp	0x35f2	; 0x35f2 <_exit>

0000025e <__bad_interrupt>:
     25e:	0c 94 00 00 	jmp	0	; 0x0 <__vectors>

00000262 <ADC0_init>:
 *  Author: Saulius
 */ 
 #include "Settings.h"

 void ADC0_init(){
	 ADC0.CTRLA = ADC_ENABLE_bm | ADC_LOWLAT_bm; //adc enable
     262:	e0 e0       	ldi	r30, 0x00	; 0
     264:	f6 e0       	ldi	r31, 0x06	; 6
     266:	81 e2       	ldi	r24, 0x21	; 33
     268:	80 83       	st	Z, r24
	 ADC0.CTRLB = ADC_PRESC_DIV4_gc; // 20M / 4 = 5MHz ADC clock (MAX adc clock is 6M)
     26a:	81 e0       	ldi	r24, 0x01	; 1
     26c:	81 83       	std	Z+1, r24	; 0x01
	 ADC0.CTRLC = (TIMEBASE_VALUE << ADC_TIMEBASE_gp)
     26e:	85 ea       	ldi	r24, 0xA5	; 165
     270:	82 83       	std	Z+2, r24	; 0x02
	 | ADC_REFSEL_2048MV_gc; //4.096V reference
	 ADC0.CTRLE = 0; //How long to take a one sample (ADC clock cycles) so it will take 0+ 0.5 = half cycle //time for discharge external capacitor
     272:	10 86       	std	Z+8, r1	; 0x08
	 ADC0.CTRLF = ADC_SAMPNUM_NONE_gc ; //128 samples:
     274:	11 86       	std	Z+9, r1	; 0x09
	 ADC0.COMMAND = ADC_MODE_SINGLE_12BIT_gc | ADC_DIFF_bm; // 64 measurements at one time // use muxneg and muxpos
     276:	80 e9       	ldi	r24, 0x90	; 144
     278:	82 87       	std	Z+10, r24	; 0x0a
	 ADC0.PGACTRL = ADC_PGAEN_bm | ADC_GAIN_4X_gc | ADC_PGABIASSEL_1X_gc | ADC_ADCPGASAMPDUR_20CLK_gc;
     27a:	85 e4       	ldi	r24, 0x45	; 69
     27c:	83 87       	std	Z+11, r24	; 0x0b
	 VREF.CTRLA = VREF_AC0REFSEL_AVDD_gc;
     27e:	87 e0       	ldi	r24, 0x07	; 7
     280:	80 93 a0 00 	sts	0x00A0, r24	; 0x8000a0 <daysInMonth+0x7f4a32>

	 ADC0.MUXPOS = ADC_MUXPOS_DACREF0_gc /*| ADC_VIA_PGA_gc*/;
     284:	83 e3       	ldi	r24, 0x33	; 51
     286:	84 87       	std	Z+12, r24	; 0x0c
	 while (ADC0.STATUS & ADC_ADCBUSY_bm); // wait untill all settings will be set up
     288:	80 91 06 06 	lds	r24, 0x0606	; 0x800606 <daysInMonth+0x7f4f98>
     28c:	80 fd       	sbrc	r24, 0
     28e:	fc cf       	rjmp	.-8      	; 0x288 <ADC0_init+0x26>

 }
     290:	08 95       	ret

00000292 <ADC0_Read>:

 uint16_t ADC0_Read(uint8_t ch){
	 ADC0.MUXNEG = ch | ADC_VIA_PGA_gc;
     292:	80 64       	ori	r24, 0x40	; 64
     294:	e0 e0       	ldi	r30, 0x00	; 0
     296:	f6 e0       	ldi	r31, 0x06	; 6
     298:	85 87       	std	Z+13, r24	; 0x0d
	 ADC0.COMMAND |= ADC_START_IMMEDIATE_gc; //start conversion
     29a:	82 85       	ldd	r24, Z+10	; 0x0a
     29c:	81 60       	ori	r24, 0x01	; 1
     29e:	82 87       	std	Z+10, r24	; 0x0a
	 while (ADC0.STATUS & ADC_ADCBUSY_bm); // wait untill all settings will be set up
     2a0:	80 91 06 06 	lds	r24, 0x0606	; 0x800606 <daysInMonth+0x7f4f98>
     2a4:	80 fd       	sbrc	r24, 0
     2a6:	fc cf       	rjmp	.-8      	; 0x2a0 <ADC0_Read+0xe>
	 while (!(ADC0.INTFLAGS & ADC_SAMPRDY_bm));
     2a8:	80 91 05 06 	lds	r24, 0x0605	; 0x800605 <daysInMonth+0x7f4f97>
     2ac:	81 ff       	sbrs	r24, 1
     2ae:	fc cf       	rjmp	.-8      	; 0x2a8 <ADC0_Read+0x16>
	 ADC0.INTFLAGS = ADC_SAMPRDY_bm; //clear result ready flag
     2b0:	e0 e0       	ldi	r30, 0x00	; 0
     2b2:	f6 e0       	ldi	r31, 0x06	; 6
     2b4:	82 e0       	ldi	r24, 0x02	; 2
     2b6:	85 83       	std	Z+5, r24	; 0x05
	 return ADC0.SAMPLE; //return average ADC value of 64 measurements
     2b8:	84 89       	ldd	r24, Z+20	; 0x14
     2ba:	95 89       	ldd	r25, Z+21	; 0x15
     2bc:	08 95       	ret

000002be <is_daylight_saving_time>:
 */ 
#include "Settings.h"
#include "CosmosVar.h"

// Patikrina, ar taikomas vasaros laikas
bool is_daylight_saving_time(int year, int month, int day) {
     2be:	cf 92       	push	r12
     2c0:	df 92       	push	r13
     2c2:	ef 92       	push	r14
     2c4:	ff 92       	push	r15
     2c6:	0f 93       	push	r16
     2c8:	1f 93       	push	r17
     2ca:	cf 93       	push	r28
     2cc:	df 93       	push	r29
     2ce:	eb 01       	movw	r28, r22
     2d0:	8a 01       	movw	r16, r20
	int march_last_sunday = 31 - ((5 * year / 4 + 4) % 7);
     2d2:	9c 01       	movw	r18, r24
     2d4:	22 0f       	add	r18, r18
     2d6:	33 1f       	adc	r19, r19
     2d8:	22 0f       	add	r18, r18
     2da:	33 1f       	adc	r19, r19
     2dc:	82 0f       	add	r24, r18
     2de:	93 1f       	adc	r25, r19
     2e0:	9c 01       	movw	r18, r24
     2e2:	99 23       	and	r25, r25
     2e4:	14 f4       	brge	.+4      	; 0x2ea <is_daylight_saving_time+0x2c>
     2e6:	2d 5f       	subi	r18, 0xFD	; 253
     2e8:	3f 4f       	sbci	r19, 0xFF	; 255
     2ea:	35 95       	asr	r19
     2ec:	27 95       	ror	r18
     2ee:	35 95       	asr	r19
     2f0:	27 95       	ror	r18
     2f2:	c9 01       	movw	r24, r18
     2f4:	04 96       	adiw	r24, 0x04	; 4
     2f6:	0f 2e       	mov	r0, r31
     2f8:	f7 e0       	ldi	r31, 0x07	; 7
     2fa:	ef 2e       	mov	r14, r31
     2fc:	f1 2c       	mov	r15, r1
     2fe:	f0 2d       	mov	r31, r0
     300:	b7 01       	movw	r22, r14
     302:	0e 94 b2 18 	call	0x3164	; 0x3164 <__divmodhi4>
     306:	ef e1       	ldi	r30, 0x1F	; 31
     308:	f0 e0       	ldi	r31, 0x00	; 0
     30a:	6f 01       	movw	r12, r30
     30c:	c8 1a       	sub	r12, r24
     30e:	d9 0a       	sbc	r13, r25
	int october_last_sunday = 31 - ((5 * year / 4 + 1) % 7);
     310:	c9 01       	movw	r24, r18
     312:	01 96       	adiw	r24, 0x01	; 1
     314:	b7 01       	movw	r22, r14
     316:	0e 94 b2 18 	call	0x3164	; 0x3164 <__divmodhi4>
     31a:	e8 1b       	sub	r30, r24
     31c:	f9 0b       	sbc	r31, r25

	if (month > 3 && month < 10) {
     31e:	ce 01       	movw	r24, r28
     320:	04 97       	sbiw	r24, 0x04	; 4
     322:	06 97       	sbiw	r24, 0x06	; 6
     324:	68 f0       	brcs	.+26     	; 0x340 <is_daylight_saving_time+0x82>
		return true;
	}
	if (month == 3 && day >= march_last_sunday) {
     326:	c3 30       	cpi	r28, 0x03	; 3
     328:	d1 05       	cpc	r29, r1
     32a:	19 f4       	brne	.+6      	; 0x332 <is_daylight_saving_time+0x74>
     32c:	0c 15       	cp	r16, r12
     32e:	1d 05       	cpc	r17, r13
     330:	4c f4       	brge	.+18     	; 0x344 <is_daylight_saving_time+0x86>
		return true;
	}
	if (month == 10 && day < october_last_sunday) {
     332:	2a 97       	sbiw	r28, 0x0a	; 10
     334:	49 f4       	brne	.+18     	; 0x348 <is_daylight_saving_time+0x8a>
     336:	0e 17       	cp	r16, r30
     338:	1f 07       	cpc	r17, r31
     33a:	44 f0       	brlt	.+16     	; 0x34c <is_daylight_saving_time+0x8e>
		return true;
	}
	return false;
     33c:	80 e0       	ldi	r24, 0x00	; 0
     33e:	07 c0       	rjmp	.+14     	; 0x34e <is_daylight_saving_time+0x90>
bool is_daylight_saving_time(int year, int month, int day) {
	int march_last_sunday = 31 - ((5 * year / 4 + 4) % 7);
	int october_last_sunday = 31 - ((5 * year / 4 + 1) % 7);

	if (month > 3 && month < 10) {
		return true;
     340:	81 e0       	ldi	r24, 0x01	; 1
     342:	05 c0       	rjmp	.+10     	; 0x34e <is_daylight_saving_time+0x90>
	}
	if (month == 3 && day >= march_last_sunday) {
		return true;
     344:	81 e0       	ldi	r24, 0x01	; 1
     346:	03 c0       	rjmp	.+6      	; 0x34e <is_daylight_saving_time+0x90>
	}
	if (month == 10 && day < october_last_sunday) {
		return true;
	}
	return false;
     348:	80 e0       	ldi	r24, 0x00	; 0
     34a:	01 c0       	rjmp	.+2      	; 0x34e <is_daylight_saving_time+0x90>
	}
	if (month == 3 && day >= march_last_sunday) {
		return true;
	}
	if (month == 10 && day < october_last_sunday) {
		return true;
     34c:	81 e0       	ldi	r24, 0x01	; 1
	}
	return false;
}
     34e:	df 91       	pop	r29
     350:	cf 91       	pop	r28
     352:	1f 91       	pop	r17
     354:	0f 91       	pop	r16
     356:	ff 90       	pop	r15
     358:	ef 90       	pop	r14
     35a:	df 90       	pop	r13
     35c:	cf 90       	pop	r12
     35e:	08 95       	ret

00000360 <calculate_julian_day>:

// Skaièiuoja Julian Day
double calculate_julian_day(int year, int month, int day, int hour, int minute, int second) {
     360:	4f 92       	push	r4
     362:	5f 92       	push	r5
     364:	6f 92       	push	r6
     366:	7f 92       	push	r7
     368:	8f 92       	push	r8
     36a:	9f 92       	push	r9
     36c:	af 92       	push	r10
     36e:	bf 92       	push	r11
     370:	cf 92       	push	r12
     372:	df 92       	push	r13
     374:	ef 92       	push	r14
     376:	ff 92       	push	r15
     378:	0f 93       	push	r16
     37a:	1f 93       	push	r17
     37c:	cf 93       	push	r28
     37e:	df 93       	push	r29
     380:	fc 01       	movw	r30, r24
     382:	eb 01       	movw	r28, r22
     384:	5a 01       	movw	r10, r20
     386:	69 01       	movw	r12, r18
	if (month <= 2) {
     388:	63 30       	cpi	r22, 0x03	; 3
     38a:	71 05       	cpc	r23, r1
     38c:	14 f4       	brge	.+4      	; 0x392 <calculate_julian_day+0x32>
		year -= 1;
     38e:	31 97       	sbiw	r30, 0x01	; 1
		month += 12;
     390:	2c 96       	adiw	r28, 0x0c	; 12
	}
	int A = year / 100;
     392:	cf 01       	movw	r24, r30
     394:	64 e6       	ldi	r22, 0x64	; 100
     396:	70 e0       	ldi	r23, 0x00	; 0
     398:	0e 94 b2 18 	call	0x3164	; 0x3164 <__divmodhi4>
	int B = 2 - A + A / 4;
     39c:	82 e0       	ldi	r24, 0x02	; 2
     39e:	90 e0       	ldi	r25, 0x00	; 0
     3a0:	4c 01       	movw	r8, r24
     3a2:	86 1a       	sub	r8, r22
     3a4:	97 0a       	sbc	r9, r23
     3a6:	cf 01       	movw	r24, r30
     3a8:	60 e9       	ldi	r22, 0x90	; 144
     3aa:	71 e0       	ldi	r23, 0x01	; 1
     3ac:	0e 94 b2 18 	call	0x3164	; 0x3164 <__divmodhi4>
     3b0:	86 0e       	add	r8, r22
     3b2:	97 1e       	adc	r9, r23

	double JD = floor(365.25 * (year + 4716)) + floor(30.6001 * (month + 1)) +
     3b4:	e4 59       	subi	r30, 0x94	; 148
     3b6:	fd 4e       	sbci	r31, 0xED	; 237
     3b8:	bf 01       	movw	r22, r30
     3ba:	ff 0f       	add	r31, r31
     3bc:	88 0b       	sbc	r24, r24
     3be:	99 0b       	sbc	r25, r25
     3c0:	0e 94 47 12 	call	0x248e	; 0x248e <__floatsisf>
     3c4:	20 e0       	ldi	r18, 0x00	; 0
     3c6:	30 ea       	ldi	r19, 0xA0	; 160
     3c8:	46 eb       	ldi	r20, 0xB6	; 182
     3ca:	53 e4       	ldi	r21, 0x43	; 67
     3cc:	0e 94 4a 14 	call	0x2894	; 0x2894 <__mulsf3>
     3d0:	0e 94 82 12 	call	0x2504	; 0x2504 <floor>
     3d4:	2b 01       	movw	r4, r22
     3d6:	3c 01       	movw	r6, r24
     3d8:	21 96       	adiw	r28, 0x01	; 1
     3da:	be 01       	movw	r22, r28
     3dc:	dd 0f       	add	r29, r29
     3de:	88 0b       	sbc	r24, r24
     3e0:	99 0b       	sbc	r25, r25
     3e2:	0e 94 47 12 	call	0x248e	; 0x248e <__floatsisf>
     3e6:	21 e0       	ldi	r18, 0x01	; 1
     3e8:	3d ec       	ldi	r19, 0xCD	; 205
     3ea:	44 ef       	ldi	r20, 0xF4	; 244
     3ec:	51 e4       	ldi	r21, 0x41	; 65
     3ee:	0e 94 4a 14 	call	0x2894	; 0x2894 <__mulsf3>
     3f2:	0e 94 82 12 	call	0x2504	; 0x2504 <floor>
     3f6:	9b 01       	movw	r18, r22
     3f8:	ac 01       	movw	r20, r24
     3fa:	c3 01       	movw	r24, r6
     3fc:	b2 01       	movw	r22, r4
     3fe:	0e 94 9a 10 	call	0x2134	; 0x2134 <__addsf3>
     402:	2b 01       	movw	r4, r22
     404:	3c 01       	movw	r6, r24
     406:	b5 01       	movw	r22, r10
     408:	bb 0c       	add	r11, r11
     40a:	88 0b       	sbc	r24, r24
     40c:	99 0b       	sbc	r25, r25
     40e:	0e 94 47 12 	call	0x248e	; 0x248e <__floatsisf>
     412:	a3 01       	movw	r20, r6
     414:	92 01       	movw	r18, r4
     416:	0e 94 9a 10 	call	0x2134	; 0x2134 <__addsf3>
     41a:	2b 01       	movw	r4, r22
     41c:	3c 01       	movw	r6, r24
	day + B - 1524.5 + (hour + minute / 60.0 + second / 3600.0) / 24.0;
     41e:	b4 01       	movw	r22, r8
     420:	99 0c       	add	r9, r9
     422:	88 0b       	sbc	r24, r24
     424:	99 0b       	sbc	r25, r25
     426:	0e 94 47 12 	call	0x248e	; 0x248e <__floatsisf>
     42a:	a3 01       	movw	r20, r6
     42c:	92 01       	movw	r18, r4
     42e:	0e 94 9a 10 	call	0x2134	; 0x2134 <__addsf3>
     432:	20 e0       	ldi	r18, 0x00	; 0
     434:	30 e9       	ldi	r19, 0x90	; 144
     436:	4e eb       	ldi	r20, 0xBE	; 190
     438:	54 e4       	ldi	r21, 0x44	; 68
     43a:	0e 94 99 10 	call	0x2132	; 0x2132 <__subsf3>
     43e:	4b 01       	movw	r8, r22
     440:	5c 01       	movw	r10, r24
     442:	b8 01       	movw	r22, r16
     444:	11 0f       	add	r17, r17
     446:	88 0b       	sbc	r24, r24
     448:	99 0b       	sbc	r25, r25
     44a:	0e 94 47 12 	call	0x248e	; 0x248e <__floatsisf>
     44e:	20 e0       	ldi	r18, 0x00	; 0
     450:	30 e0       	ldi	r19, 0x00	; 0
     452:	40 e7       	ldi	r20, 0x70	; 112
     454:	52 e4       	ldi	r21, 0x42	; 66
     456:	0e 94 9d 11 	call	0x233a	; 0x233a <__divsf3>
     45a:	2b 01       	movw	r4, r22
     45c:	3c 01       	movw	r6, r24
     45e:	b6 01       	movw	r22, r12
     460:	dd 0c       	add	r13, r13
     462:	88 0b       	sbc	r24, r24
     464:	99 0b       	sbc	r25, r25
     466:	0e 94 47 12 	call	0x248e	; 0x248e <__floatsisf>
     46a:	a3 01       	movw	r20, r6
     46c:	92 01       	movw	r18, r4
     46e:	0e 94 9a 10 	call	0x2134	; 0x2134 <__addsf3>
     472:	2b 01       	movw	r4, r22
     474:	3c 01       	movw	r6, r24
     476:	b7 01       	movw	r22, r14
     478:	ff 0c       	add	r15, r15
     47a:	88 0b       	sbc	r24, r24
     47c:	99 0b       	sbc	r25, r25
     47e:	0e 94 47 12 	call	0x248e	; 0x248e <__floatsisf>
     482:	20 e0       	ldi	r18, 0x00	; 0
     484:	30 e0       	ldi	r19, 0x00	; 0
     486:	41 e6       	ldi	r20, 0x61	; 97
     488:	55 e4       	ldi	r21, 0x45	; 69
     48a:	0e 94 9d 11 	call	0x233a	; 0x233a <__divsf3>
     48e:	9b 01       	movw	r18, r22
     490:	ac 01       	movw	r20, r24
     492:	c3 01       	movw	r24, r6
     494:	b2 01       	movw	r22, r4
     496:	0e 94 9a 10 	call	0x2134	; 0x2134 <__addsf3>
     49a:	20 e0       	ldi	r18, 0x00	; 0
     49c:	30 e0       	ldi	r19, 0x00	; 0
     49e:	40 ec       	ldi	r20, 0xC0	; 192
     4a0:	51 e4       	ldi	r21, 0x41	; 65
     4a2:	0e 94 9d 11 	call	0x233a	; 0x233a <__divsf3>
     4a6:	9b 01       	movw	r18, r22
     4a8:	ac 01       	movw	r20, r24
		month += 12;
	}
	int A = year / 100;
	int B = 2 - A + A / 4;

	double JD = floor(365.25 * (year + 4716)) + floor(30.6001 * (month + 1)) +
     4aa:	c5 01       	movw	r24, r10
     4ac:	b4 01       	movw	r22, r8
     4ae:	0e 94 9a 10 	call	0x2134	; 0x2134 <__addsf3>
	day + B - 1524.5 + (hour + minute / 60.0 + second / 3600.0) / 24.0;
	return JD;
}
     4b2:	df 91       	pop	r29
     4b4:	cf 91       	pop	r28
     4b6:	1f 91       	pop	r17
     4b8:	0f 91       	pop	r16
     4ba:	ff 90       	pop	r15
     4bc:	ef 90       	pop	r14
     4be:	df 90       	pop	r13
     4c0:	cf 90       	pop	r12
     4c2:	bf 90       	pop	r11
     4c4:	af 90       	pop	r10
     4c6:	9f 90       	pop	r9
     4c8:	8f 90       	pop	r8
     4ca:	7f 90       	pop	r7
     4cc:	6f 90       	pop	r6
     4ce:	5f 90       	pop	r5
     4d0:	4f 90       	pop	r4
     4d2:	08 95       	ret

000004d4 <calculate_solar_mean_anomaly>:

// Skaièiuoja saulës vidutinæ anomalijà
double calculate_solar_mean_anomaly(double julian_century) {
     4d4:	cf 92       	push	r12
     4d6:	df 92       	push	r13
     4d8:	ef 92       	push	r14
     4da:	ff 92       	push	r15
     4dc:	6b 01       	movw	r12, r22
     4de:	7c 01       	movw	r14, r24
	return fmod(357.52911 + julian_century * (35999.05029 - 0.0001537 * julian_century), 360.0);
     4e0:	28 e8       	ldi	r18, 0x88	; 136
     4e2:	3a e2       	ldi	r19, 0x2A	; 42
     4e4:	41 e2       	ldi	r20, 0x21	; 33
     4e6:	59 e3       	ldi	r21, 0x39	; 57
     4e8:	0e 94 4a 14 	call	0x2894	; 0x2894 <__mulsf3>
     4ec:	9b 01       	movw	r18, r22
     4ee:	ac 01       	movw	r20, r24
     4f0:	6d e0       	ldi	r22, 0x0D	; 13
     4f2:	7f e9       	ldi	r23, 0x9F	; 159
     4f4:	8c e0       	ldi	r24, 0x0C	; 12
     4f6:	97 e4       	ldi	r25, 0x47	; 71
     4f8:	0e 94 99 10 	call	0x2132	; 0x2132 <__subsf3>
     4fc:	9b 01       	movw	r18, r22
     4fe:	ac 01       	movw	r20, r24
     500:	c7 01       	movw	r24, r14
     502:	b6 01       	movw	r22, r12
     504:	0e 94 4a 14 	call	0x2894	; 0x2894 <__mulsf3>
     508:	2a eb       	ldi	r18, 0xBA	; 186
     50a:	33 ec       	ldi	r19, 0xC3	; 195
     50c:	42 eb       	ldi	r20, 0xB2	; 178
     50e:	53 e4       	ldi	r21, 0x43	; 67
     510:	0e 94 9a 10 	call	0x2134	; 0x2134 <__addsf3>
     514:	20 e0       	ldi	r18, 0x00	; 0
     516:	30 e0       	ldi	r19, 0x00	; 0
     518:	44 eb       	ldi	r20, 0xB4	; 180
     51a:	53 e4       	ldi	r21, 0x43	; 67
     51c:	0e 94 a4 12 	call	0x2548	; 0x2548 <fmod>
}
     520:	ff 90       	pop	r15
     522:	ef 90       	pop	r14
     524:	df 90       	pop	r13
     526:	cf 90       	pop	r12
     528:	08 95       	ret

0000052a <calculate_true_anomaly>:

// Skaièiuoja tikràjà anomalijà
double calculate_true_anomaly(double mean_anomaly, double julian_century) {
     52a:	4f 92       	push	r4
     52c:	5f 92       	push	r5
     52e:	6f 92       	push	r6
     530:	7f 92       	push	r7
     532:	8f 92       	push	r8
     534:	9f 92       	push	r9
     536:	af 92       	push	r10
     538:	bf 92       	push	r11
     53a:	cf 92       	push	r12
     53c:	df 92       	push	r13
     53e:	ef 92       	push	r14
     540:	ff 92       	push	r15
     542:	6b 01       	movw	r12, r22
     544:	7c 01       	movw	r14, r24
     546:	49 01       	movw	r8, r18
     548:	5a 01       	movw	r10, r20
	double C = (1.914602 - julian_century * (0.004817 + 0.000014 * julian_century)) * sin(DEG_TO_RAD * mean_anomaly) +
     54a:	2b e8       	ldi	r18, 0x8B	; 139
     54c:	31 ee       	ldi	r19, 0xE1	; 225
     54e:	4a e6       	ldi	r20, 0x6A	; 106
     550:	57 e3       	ldi	r21, 0x37	; 55
     552:	c5 01       	movw	r24, r10
     554:	b4 01       	movw	r22, r8
     556:	0e 94 4a 14 	call	0x2894	; 0x2894 <__mulsf3>
     55a:	2d ee       	ldi	r18, 0xED	; 237
     55c:	37 ed       	ldi	r19, 0xD7	; 215
     55e:	4d e9       	ldi	r20, 0x9D	; 157
     560:	5b e3       	ldi	r21, 0x3B	; 59
     562:	0e 94 9a 10 	call	0x2134	; 0x2134 <__addsf3>
     566:	9b 01       	movw	r18, r22
     568:	ac 01       	movw	r20, r24
     56a:	c5 01       	movw	r24, r10
     56c:	b4 01       	movw	r22, r8
     56e:	0e 94 4a 14 	call	0x2894	; 0x2894 <__mulsf3>
     572:	9b 01       	movw	r18, r22
     574:	ac 01       	movw	r20, r24
     576:	6e ea       	ldi	r22, 0xAE	; 174
     578:	71 e1       	ldi	r23, 0x11	; 17
     57a:	85 ef       	ldi	r24, 0xF5	; 245
     57c:	9f e3       	ldi	r25, 0x3F	; 63
     57e:	0e 94 99 10 	call	0x2132	; 0x2132 <__subsf3>
     582:	2b 01       	movw	r4, r22
     584:	3c 01       	movw	r6, r24
     586:	25 e3       	ldi	r18, 0x35	; 53
     588:	3a ef       	ldi	r19, 0xFA	; 250
     58a:	4e e8       	ldi	r20, 0x8E	; 142
     58c:	5c e3       	ldi	r21, 0x3C	; 60
     58e:	c7 01       	movw	r24, r14
     590:	b6 01       	movw	r22, r12
     592:	0e 94 4a 14 	call	0x2894	; 0x2894 <__mulsf3>
     596:	0e 94 b7 14 	call	0x296e	; 0x296e <sin>
     59a:	9b 01       	movw	r18, r22
     59c:	ac 01       	movw	r20, r24
     59e:	c3 01       	movw	r24, r6
     5a0:	b2 01       	movw	r22, r4
     5a2:	0e 94 4a 14 	call	0x2894	; 0x2894 <__mulsf3>
     5a6:	2b 01       	movw	r4, r22
     5a8:	3c 01       	movw	r6, r24
	(0.019993 - 0.000101 * julian_century) * sin(2 * DEG_TO_RAD * mean_anomaly) +
     5aa:	26 ef       	ldi	r18, 0xF6	; 246
     5ac:	3f ec       	ldi	r19, 0xCF	; 207
     5ae:	43 ed       	ldi	r20, 0xD3	; 211
     5b0:	58 e3       	ldi	r21, 0x38	; 56
     5b2:	c5 01       	movw	r24, r10
     5b4:	b4 01       	movw	r22, r8
     5b6:	0e 94 4a 14 	call	0x2894	; 0x2894 <__mulsf3>
     5ba:	9b 01       	movw	r18, r22
     5bc:	ac 01       	movw	r20, r24
     5be:	6c e5       	ldi	r22, 0x5C	; 92
     5c0:	78 ec       	ldi	r23, 0xC8	; 200
     5c2:	83 ea       	ldi	r24, 0xA3	; 163
     5c4:	9c e3       	ldi	r25, 0x3C	; 60
     5c6:	0e 94 99 10 	call	0x2132	; 0x2132 <__subsf3>
     5ca:	4b 01       	movw	r8, r22
     5cc:	5c 01       	movw	r10, r24
     5ce:	25 e3       	ldi	r18, 0x35	; 53
     5d0:	3a ef       	ldi	r19, 0xFA	; 250
     5d2:	4e e0       	ldi	r20, 0x0E	; 14
     5d4:	5d e3       	ldi	r21, 0x3D	; 61
     5d6:	c7 01       	movw	r24, r14
     5d8:	b6 01       	movw	r22, r12
     5da:	0e 94 4a 14 	call	0x2894	; 0x2894 <__mulsf3>
     5de:	0e 94 b7 14 	call	0x296e	; 0x296e <sin>
     5e2:	9b 01       	movw	r18, r22
     5e4:	ac 01       	movw	r20, r24
     5e6:	c5 01       	movw	r24, r10
     5e8:	b4 01       	movw	r22, r8
     5ea:	0e 94 4a 14 	call	0x2894	; 0x2894 <__mulsf3>
     5ee:	9b 01       	movw	r18, r22
     5f0:	ac 01       	movw	r20, r24
	return fmod(357.52911 + julian_century * (35999.05029 - 0.0001537 * julian_century), 360.0);
}

// Skaièiuoja tikràjà anomalijà
double calculate_true_anomaly(double mean_anomaly, double julian_century) {
	double C = (1.914602 - julian_century * (0.004817 + 0.000014 * julian_century)) * sin(DEG_TO_RAD * mean_anomaly) +
     5f2:	c3 01       	movw	r24, r6
     5f4:	b2 01       	movw	r22, r4
     5f6:	0e 94 9a 10 	call	0x2134	; 0x2134 <__addsf3>
     5fa:	4b 01       	movw	r8, r22
     5fc:	5c 01       	movw	r10, r24
	(0.019993 - 0.000101 * julian_century) * sin(2 * DEG_TO_RAD * mean_anomaly) +
	0.000289 * sin(3 * DEG_TO_RAD * mean_anomaly);
     5fe:	20 e5       	ldi	r18, 0x50	; 80
     600:	37 e7       	ldi	r19, 0x77	; 119
     602:	46 e5       	ldi	r20, 0x56	; 86
     604:	5d e3       	ldi	r21, 0x3D	; 61
     606:	c7 01       	movw	r24, r14
     608:	b6 01       	movw	r22, r12
     60a:	0e 94 4a 14 	call	0x2894	; 0x2894 <__mulsf3>
     60e:	0e 94 b7 14 	call	0x296e	; 0x296e <sin>
     612:	2c ee       	ldi	r18, 0xEC	; 236
     614:	34 e8       	ldi	r19, 0x84	; 132
     616:	47 e9       	ldi	r20, 0x97	; 151
     618:	59 e3       	ldi	r21, 0x39	; 57
     61a:	0e 94 4a 14 	call	0x2894	; 0x2894 <__mulsf3>
     61e:	9b 01       	movw	r18, r22
     620:	ac 01       	movw	r20, r24
	return fmod(357.52911 + julian_century * (35999.05029 - 0.0001537 * julian_century), 360.0);
}

// Skaièiuoja tikràjà anomalijà
double calculate_true_anomaly(double mean_anomaly, double julian_century) {
	double C = (1.914602 - julian_century * (0.004817 + 0.000014 * julian_century)) * sin(DEG_TO_RAD * mean_anomaly) +
     622:	c5 01       	movw	r24, r10
     624:	b4 01       	movw	r22, r8
     626:	0e 94 9a 10 	call	0x2134	; 0x2134 <__addsf3>
     62a:	9b 01       	movw	r18, r22
     62c:	ac 01       	movw	r20, r24
	(0.019993 - 0.000101 * julian_century) * sin(2 * DEG_TO_RAD * mean_anomaly) +
	0.000289 * sin(3 * DEG_TO_RAD * mean_anomaly);
	return mean_anomaly + C;
     62e:	c7 01       	movw	r24, r14
     630:	b6 01       	movw	r22, r12
     632:	0e 94 9a 10 	call	0x2134	; 0x2134 <__addsf3>
}
     636:	ff 90       	pop	r15
     638:	ef 90       	pop	r14
     63a:	df 90       	pop	r13
     63c:	cf 90       	pop	r12
     63e:	bf 90       	pop	r11
     640:	af 90       	pop	r10
     642:	9f 90       	pop	r9
     644:	8f 90       	pop	r8
     646:	7f 90       	pop	r7
     648:	6f 90       	pop	r6
     64a:	5f 90       	pop	r5
     64c:	4f 90       	pop	r4
     64e:	08 95       	ret

00000650 <calculate_solar_apparent_longitude>:

// Skaièiuoja saulës akivaizdø ilgumà
double calculate_solar_apparent_longitude(double true_longitude, double julian_century) {
     650:	8f 92       	push	r8
     652:	9f 92       	push	r9
     654:	af 92       	push	r10
     656:	bf 92       	push	r11
     658:	cf 92       	push	r12
     65a:	df 92       	push	r13
     65c:	ef 92       	push	r14
     65e:	ff 92       	push	r15
     660:	6b 01       	movw	r12, r22
     662:	7c 01       	movw	r14, r24
     664:	ca 01       	movw	r24, r20
     666:	b9 01       	movw	r22, r18
	double omega = 125.04 - 1934.136 * julian_century;
     668:	2a e5       	ldi	r18, 0x5A	; 90
     66a:	34 ec       	ldi	r19, 0xC4	; 196
     66c:	41 ef       	ldi	r20, 0xF1	; 241
     66e:	54 e4       	ldi	r21, 0x44	; 68
     670:	0e 94 4a 14 	call	0x2894	; 0x2894 <__mulsf3>
     674:	9b 01       	movw	r18, r22
     676:	ac 01       	movw	r20, r24
     678:	6b e7       	ldi	r22, 0x7B	; 123
     67a:	74 e1       	ldi	r23, 0x14	; 20
     67c:	8a ef       	ldi	r24, 0xFA	; 250
     67e:	92 e4       	ldi	r25, 0x42	; 66
     680:	0e 94 99 10 	call	0x2132	; 0x2132 <__subsf3>
     684:	4b 01       	movw	r8, r22
     686:	5c 01       	movw	r10, r24
	return true_longitude - 0.00569 - 0.00478 * sin(DEG_TO_RAD * omega);
     688:	2e e2       	ldi	r18, 0x2E	; 46
     68a:	33 e7       	ldi	r19, 0x73	; 115
     68c:	4a eb       	ldi	r20, 0xBA	; 186
     68e:	5b e3       	ldi	r21, 0x3B	; 59
     690:	c7 01       	movw	r24, r14
     692:	b6 01       	movw	r22, r12
     694:	0e 94 99 10 	call	0x2132	; 0x2132 <__subsf3>
     698:	6b 01       	movw	r12, r22
     69a:	7c 01       	movw	r14, r24
     69c:	25 e3       	ldi	r18, 0x35	; 53
     69e:	3a ef       	ldi	r19, 0xFA	; 250
     6a0:	4e e8       	ldi	r20, 0x8E	; 142
     6a2:	5c e3       	ldi	r21, 0x3C	; 60
     6a4:	c5 01       	movw	r24, r10
     6a6:	b4 01       	movw	r22, r8
     6a8:	0e 94 4a 14 	call	0x2894	; 0x2894 <__mulsf3>
     6ac:	0e 94 b7 14 	call	0x296e	; 0x296e <sin>
     6b0:	2c e8       	ldi	r18, 0x8C	; 140
     6b2:	31 ea       	ldi	r19, 0xA1	; 161
     6b4:	4c e9       	ldi	r20, 0x9C	; 156
     6b6:	5b e3       	ldi	r21, 0x3B	; 59
     6b8:	0e 94 4a 14 	call	0x2894	; 0x2894 <__mulsf3>
     6bc:	9b 01       	movw	r18, r22
     6be:	ac 01       	movw	r20, r24
     6c0:	c7 01       	movw	r24, r14
     6c2:	b6 01       	movw	r22, r12
     6c4:	0e 94 99 10 	call	0x2132	; 0x2132 <__subsf3>
}
     6c8:	ff 90       	pop	r15
     6ca:	ef 90       	pop	r14
     6cc:	df 90       	pop	r13
     6ce:	cf 90       	pop	r12
     6d0:	bf 90       	pop	r11
     6d2:	af 90       	pop	r10
     6d4:	9f 90       	pop	r9
     6d6:	8f 90       	pop	r8
     6d8:	08 95       	ret

000006da <calculate_obliquity_of_ecliptic>:

// Skaièiuoja ekliptikos posvyrá
double calculate_obliquity_of_ecliptic(double julian_century) {
     6da:	8f 92       	push	r8
     6dc:	9f 92       	push	r9
     6de:	af 92       	push	r10
     6e0:	bf 92       	push	r11
     6e2:	cf 92       	push	r12
     6e4:	df 92       	push	r13
     6e6:	ef 92       	push	r14
     6e8:	ff 92       	push	r15
     6ea:	6b 01       	movw	r12, r22
     6ec:	7c 01       	movw	r14, r24
	return 23.439292 - julian_century * (0.013004167 + 0.0000001639 * julian_century - 0.0000005036 * julian_century * julian_century);
     6ee:	2d e7       	ldi	r18, 0x7D	; 125
     6f0:	3c ef       	ldi	r19, 0xFC	; 252
     6f2:	4f e2       	ldi	r20, 0x2F	; 47
     6f4:	54 e3       	ldi	r21, 0x34	; 52
     6f6:	0e 94 4a 14 	call	0x2894	; 0x2894 <__mulsf3>
     6fa:	2e e6       	ldi	r18, 0x6E	; 110
     6fc:	3f e0       	ldi	r19, 0x0F	; 15
     6fe:	45 e5       	ldi	r20, 0x55	; 85
     700:	5c e3       	ldi	r21, 0x3C	; 60
     702:	0e 94 9a 10 	call	0x2134	; 0x2134 <__addsf3>
     706:	4b 01       	movw	r8, r22
     708:	5c 01       	movw	r10, r24
     70a:	21 e2       	ldi	r18, 0x21	; 33
     70c:	3f e2       	ldi	r19, 0x2F	; 47
     70e:	47 e0       	ldi	r20, 0x07	; 7
     710:	55 e3       	ldi	r21, 0x35	; 53
     712:	c7 01       	movw	r24, r14
     714:	b6 01       	movw	r22, r12
     716:	0e 94 4a 14 	call	0x2894	; 0x2894 <__mulsf3>
     71a:	9b 01       	movw	r18, r22
     71c:	ac 01       	movw	r20, r24
     71e:	c7 01       	movw	r24, r14
     720:	b6 01       	movw	r22, r12
     722:	0e 94 4a 14 	call	0x2894	; 0x2894 <__mulsf3>
     726:	9b 01       	movw	r18, r22
     728:	ac 01       	movw	r20, r24
     72a:	c5 01       	movw	r24, r10
     72c:	b4 01       	movw	r22, r8
     72e:	0e 94 99 10 	call	0x2132	; 0x2132 <__subsf3>
     732:	9b 01       	movw	r18, r22
     734:	ac 01       	movw	r20, r24
     736:	c7 01       	movw	r24, r14
     738:	b6 01       	movw	r22, r12
     73a:	0e 94 4a 14 	call	0x2894	; 0x2894 <__mulsf3>
     73e:	9b 01       	movw	r18, r22
     740:	ac 01       	movw	r20, r24
     742:	6c ea       	ldi	r22, 0xAC	; 172
     744:	73 e8       	ldi	r23, 0x83	; 131
     746:	8b eb       	ldi	r24, 0xBB	; 187
     748:	91 e4       	ldi	r25, 0x41	; 65
     74a:	0e 94 99 10 	call	0x2132	; 0x2132 <__subsf3>
}
     74e:	ff 90       	pop	r15
     750:	ef 90       	pop	r14
     752:	df 90       	pop	r13
     754:	cf 90       	pop	r12
     756:	bf 90       	pop	r11
     758:	af 90       	pop	r10
     75a:	9f 90       	pop	r9
     75c:	8f 90       	pop	r8
     75e:	08 95       	ret

00000760 <calculate_solar_declination>:

// Skaièiuoja saulës deklinacijà
double calculate_solar_declination(double apparent_longitude, double obliquity) {
     760:	8f 92       	push	r8
     762:	9f 92       	push	r9
     764:	af 92       	push	r10
     766:	bf 92       	push	r11
     768:	cf 92       	push	r12
     76a:	df 92       	push	r13
     76c:	ef 92       	push	r14
     76e:	ff 92       	push	r15
     770:	4b 01       	movw	r8, r22
     772:	5c 01       	movw	r10, r24
     774:	ca 01       	movw	r24, r20
     776:	b9 01       	movw	r22, r18
	return asin(sin(DEG_TO_RAD * obliquity) * sin(DEG_TO_RAD * apparent_longitude)) * RAD_TO_DEG;
     778:	25 e3       	ldi	r18, 0x35	; 53
     77a:	3a ef       	ldi	r19, 0xFA	; 250
     77c:	4e e8       	ldi	r20, 0x8E	; 142
     77e:	5c e3       	ldi	r21, 0x3C	; 60
     780:	0e 94 4a 14 	call	0x2894	; 0x2894 <__mulsf3>
     784:	0e 94 b7 14 	call	0x296e	; 0x296e <sin>
     788:	6b 01       	movw	r12, r22
     78a:	7c 01       	movw	r14, r24
     78c:	25 e3       	ldi	r18, 0x35	; 53
     78e:	3a ef       	ldi	r19, 0xFA	; 250
     790:	4e e8       	ldi	r20, 0x8E	; 142
     792:	5c e3       	ldi	r21, 0x3C	; 60
     794:	c5 01       	movw	r24, r10
     796:	b4 01       	movw	r22, r8
     798:	0e 94 4a 14 	call	0x2894	; 0x2894 <__mulsf3>
     79c:	0e 94 b7 14 	call	0x296e	; 0x296e <sin>
     7a0:	9b 01       	movw	r18, r22
     7a2:	ac 01       	movw	r20, r24
     7a4:	c7 01       	movw	r24, r14
     7a6:	b6 01       	movw	r22, r12
     7a8:	0e 94 4a 14 	call	0x2894	; 0x2894 <__mulsf3>
     7ac:	0e 94 06 11 	call	0x220c	; 0x220c <asin>
     7b0:	21 ee       	ldi	r18, 0xE1	; 225
     7b2:	3e e2       	ldi	r19, 0x2E	; 46
     7b4:	45 e6       	ldi	r20, 0x65	; 101
     7b6:	52 e4       	ldi	r21, 0x42	; 66
     7b8:	0e 94 4a 14 	call	0x2894	; 0x2894 <__mulsf3>
}
     7bc:	ff 90       	pop	r15
     7be:	ef 90       	pop	r14
     7c0:	df 90       	pop	r13
     7c2:	cf 90       	pop	r12
     7c4:	bf 90       	pop	r11
     7c6:	af 90       	pop	r10
     7c8:	9f 90       	pop	r9
     7ca:	8f 90       	pop	r8
     7cc:	08 95       	ret

000007ce <calculate_atmospheric_refraction>:

// Atmosferos refrakcijos korekcija
double calculate_atmospheric_refraction(double elevation) {
     7ce:	cf 92       	push	r12
     7d0:	df 92       	push	r13
     7d2:	ef 92       	push	r14
     7d4:	ff 92       	push	r15
     7d6:	6b 01       	movw	r12, r22
     7d8:	7c 01       	movw	r14, r24
	if (elevation > -1.0) {
     7da:	20 e0       	ldi	r18, 0x00	; 0
     7dc:	30 e0       	ldi	r19, 0x00	; 0
     7de:	40 e8       	ldi	r20, 0x80	; 128
     7e0:	5f eb       	ldi	r21, 0xBF	; 191
     7e2:	0e 94 3d 14 	call	0x287a	; 0x287a <__gesf2>
     7e6:	18 16       	cp	r1, r24
     7e8:	3c f5       	brge	.+78     	; 0x838 <__DATA_REGION_LENGTH__+0x38>
		double tan_elevation = tan(DEG_TO_RAD * (elevation + 10.3 / (elevation + 5.11)));
     7ea:	2f e1       	ldi	r18, 0x1F	; 31
     7ec:	35 e8       	ldi	r19, 0x85	; 133
     7ee:	43 ea       	ldi	r20, 0xA3	; 163
     7f0:	50 e4       	ldi	r21, 0x40	; 64
     7f2:	c7 01       	movw	r24, r14
     7f4:	b6 01       	movw	r22, r12
     7f6:	0e 94 9a 10 	call	0x2134	; 0x2134 <__addsf3>
     7fa:	9b 01       	movw	r18, r22
     7fc:	ac 01       	movw	r20, r24
     7fe:	6d ec       	ldi	r22, 0xCD	; 205
     800:	7c ec       	ldi	r23, 0xCC	; 204
     802:	84 e2       	ldi	r24, 0x24	; 36
     804:	91 e4       	ldi	r25, 0x41	; 65
     806:	0e 94 9d 11 	call	0x233a	; 0x233a <__divsf3>
     80a:	9b 01       	movw	r18, r22
     80c:	ac 01       	movw	r20, r24
     80e:	c7 01       	movw	r24, r14
     810:	b6 01       	movw	r22, r12
     812:	0e 94 9a 10 	call	0x2134	; 0x2134 <__addsf3>
     816:	25 e3       	ldi	r18, 0x35	; 53
     818:	3a ef       	ldi	r19, 0xFA	; 250
     81a:	4e e8       	ldi	r20, 0x8E	; 142
     81c:	5c e3       	ldi	r21, 0x3C	; 60
     81e:	0e 94 4a 14 	call	0x2894	; 0x2894 <__mulsf3>
     822:	0e 94 09 15 	call	0x2a12	; 0x2a12 <tan>
     826:	9b 01       	movw	r18, r22
     828:	ac 01       	movw	r20, r24
		return 0.0167 / tan_elevation;
     82a:	60 e7       	ldi	r22, 0x70	; 112
     82c:	7e ec       	ldi	r23, 0xCE	; 206
     82e:	88 e8       	ldi	r24, 0x88	; 136
     830:	9c e3       	ldi	r25, 0x3C	; 60
     832:	0e 94 9d 11 	call	0x233a	; 0x233a <__divsf3>
     836:	03 c0       	rjmp	.+6      	; 0x83e <__DATA_REGION_LENGTH__+0x3e>
	}
	return 0.0;
     838:	60 e0       	ldi	r22, 0x00	; 0
     83a:	70 e0       	ldi	r23, 0x00	; 0
     83c:	cb 01       	movw	r24, r22
}
     83e:	ff 90       	pop	r15
     840:	ef 90       	pop	r14
     842:	df 90       	pop	r13
     844:	cf 90       	pop	r12
     846:	08 95       	ret

00000848 <calculate_solar_position>:

// Saulës pozicijos skaièiavimas pagal struktûrà
void calculate_solar_position(const SolarPositionParameters *params, double *elevation, double *azimuth) {
     848:	2f 92       	push	r2
     84a:	3f 92       	push	r3
     84c:	4f 92       	push	r4
     84e:	5f 92       	push	r5
     850:	6f 92       	push	r6
     852:	7f 92       	push	r7
     854:	8f 92       	push	r8
     856:	9f 92       	push	r9
     858:	af 92       	push	r10
     85a:	bf 92       	push	r11
     85c:	cf 92       	push	r12
     85e:	df 92       	push	r13
     860:	ef 92       	push	r14
     862:	ff 92       	push	r15
     864:	0f 93       	push	r16
     866:	1f 93       	push	r17
     868:	cf 93       	push	r28
     86a:	df 93       	push	r29
     86c:	cd b7       	in	r28, 0x3d	; 61
     86e:	de b7       	in	r29, 0x3e	; 62
     870:	64 97       	sbiw	r28, 0x14	; 20
     872:	cd bf       	out	0x3d, r28	; 61
     874:	de bf       	out	0x3e, r29	; 62
     876:	8f 87       	std	Y+15, r24	; 0x0f
     878:	98 8b       	std	Y+16, r25	; 0x10
     87a:	6d 87       	std	Y+13, r22	; 0x0d
     87c:	7e 87       	std	Y+14, r23	; 0x0e
     87e:	4b 8b       	std	Y+19, r20	; 0x13
     880:	5c 8b       	std	Y+20, r21	; 0x14
	int timezone_offset = BASE_TIMEZONE_OFFSET + (is_daylight_saving_time(params->year, params->month, params->day) ? 1 : 0);
     882:	fc 01       	movw	r30, r24
     884:	40 88       	ldd	r4, Z+16	; 0x10
     886:	51 88       	ldd	r5, Z+17	; 0x11
     888:	66 84       	ldd	r6, Z+14	; 0x0e
     88a:	77 84       	ldd	r7, Z+15	; 0x0f
     88c:	c4 84       	ldd	r12, Z+12	; 0x0c
     88e:	d5 84       	ldd	r13, Z+13	; 0x0d
     890:	a2 01       	movw	r20, r4
     892:	b3 01       	movw	r22, r6
     894:	c6 01       	movw	r24, r12
     896:	0e 94 5f 01 	call	0x2be	; 0x2be <is_daylight_saving_time>
     89a:	68 2f       	mov	r22, r24
     89c:	70 e0       	ldi	r23, 0x00	; 0
     89e:	5b 01       	movw	r10, r22
     8a0:	f2 e0       	ldi	r31, 0x02	; 2
     8a2:	af 0e       	add	r10, r31
     8a4:	b1 1c       	adc	r11, r1

	double JD = calculate_julian_day(params->year, params->month, params->day, params->hour - timezone_offset, params->minute, params->second);
     8a6:	ef 85       	ldd	r30, Y+15	; 0x0f
     8a8:	f8 89       	ldd	r31, Y+16	; 0x10
     8aa:	86 88       	ldd	r8, Z+22	; 0x16
     8ac:	97 88       	ldd	r9, Z+23	; 0x17
     8ae:	84 89       	ldd	r24, Z+20	; 0x14
     8b0:	95 89       	ldd	r25, Z+21	; 0x15
     8b2:	8d 83       	std	Y+5, r24	; 0x05
     8b4:	9e 83       	std	Y+6, r25	; 0x06
     8b6:	22 88       	ldd	r2, Z+18	; 0x12
     8b8:	33 88       	ldd	r3, Z+19	; 0x13
     8ba:	91 01       	movw	r18, r2
     8bc:	2a 19       	sub	r18, r10
     8be:	3b 09       	sbc	r19, r11
     8c0:	74 01       	movw	r14, r8
     8c2:	8c 01       	movw	r16, r24
     8c4:	a2 01       	movw	r20, r4
     8c6:	b3 01       	movw	r22, r6
     8c8:	c6 01       	movw	r24, r12
     8ca:	0e 94 b0 01 	call	0x360	; 0x360 <calculate_julian_day>
	double JC = (JD - 2451545.0) / 36525.0;
     8ce:	24 e6       	ldi	r18, 0x64	; 100
     8d0:	31 ea       	ldi	r19, 0xA1	; 161
     8d2:	45 e1       	ldi	r20, 0x15	; 21
     8d4:	5a e4       	ldi	r21, 0x4A	; 74
     8d6:	0e 94 99 10 	call	0x2132	; 0x2132 <__subsf3>
     8da:	20 e0       	ldi	r18, 0x00	; 0
     8dc:	3d ea       	ldi	r19, 0xAD	; 173
     8de:	4e e0       	ldi	r20, 0x0E	; 14
     8e0:	57 e4       	ldi	r21, 0x47	; 71
     8e2:	0e 94 9d 11 	call	0x233a	; 0x233a <__divsf3>
     8e6:	6b 01       	movw	r12, r22
     8e8:	7c 01       	movw	r14, r24

	double M = calculate_solar_mean_anomaly(JC);
     8ea:	0e 94 6a 02 	call	0x4d4	; 0x4d4 <calculate_solar_mean_anomaly>
     8ee:	2b 01       	movw	r4, r22
     8f0:	3c 01       	movw	r6, r24
	double true_anomaly = calculate_true_anomaly(M, JC);
     8f2:	a7 01       	movw	r20, r14
     8f4:	96 01       	movw	r18, r12
     8f6:	0e 94 95 02 	call	0x52a	; 0x52a <calculate_true_anomaly>
     8fa:	69 83       	std	Y+1, r22	; 0x01
     8fc:	7a 83       	std	Y+2, r23	; 0x02
     8fe:	8b 83       	std	Y+3, r24	; 0x03
     900:	9c 83       	std	Y+4, r25	; 0x04
	double true_longitude = fmod(280.46646 + JC * (36000.76983 + JC * 0.0003032), 360.0) + (true_anomaly - M);
     902:	21 ed       	ldi	r18, 0xD1	; 209
     904:	36 ef       	ldi	r19, 0xF6	; 246
     906:	4e e9       	ldi	r20, 0x9E	; 158
     908:	59 e3       	ldi	r21, 0x39	; 57
     90a:	c7 01       	movw	r24, r14
     90c:	b6 01       	movw	r22, r12
     90e:	0e 94 4a 14 	call	0x2894	; 0x2894 <__mulsf3>
     912:	25 ec       	ldi	r18, 0xC5	; 197
     914:	30 ea       	ldi	r19, 0xA0	; 160
     916:	4c e0       	ldi	r20, 0x0C	; 12
     918:	57 e4       	ldi	r21, 0x47	; 71
     91a:	0e 94 9a 10 	call	0x2134	; 0x2134 <__addsf3>
     91e:	9b 01       	movw	r18, r22
     920:	ac 01       	movw	r20, r24
     922:	c7 01       	movw	r24, r14
     924:	b6 01       	movw	r22, r12
     926:	0e 94 4a 14 	call	0x2894	; 0x2894 <__mulsf3>
     92a:	25 eb       	ldi	r18, 0xB5	; 181
     92c:	3b e3       	ldi	r19, 0x3B	; 59
     92e:	4c e8       	ldi	r20, 0x8C	; 140
     930:	53 e4       	ldi	r21, 0x43	; 67
     932:	0e 94 9a 10 	call	0x2134	; 0x2134 <__addsf3>
     936:	20 e0       	ldi	r18, 0x00	; 0
     938:	30 e0       	ldi	r19, 0x00	; 0
     93a:	44 eb       	ldi	r20, 0xB4	; 180
     93c:	53 e4       	ldi	r21, 0x43	; 67
     93e:	0e 94 a4 12 	call	0x2548	; 0x2548 <fmod>
     942:	69 87       	std	Y+9, r22	; 0x09
     944:	7a 87       	std	Y+10, r23	; 0x0a
     946:	8b 87       	std	Y+11, r24	; 0x0b
     948:	9c 87       	std	Y+12, r25	; 0x0c
     94a:	a3 01       	movw	r20, r6
     94c:	92 01       	movw	r18, r4
     94e:	69 81       	ldd	r22, Y+1	; 0x01
     950:	7a 81       	ldd	r23, Y+2	; 0x02
     952:	8b 81       	ldd	r24, Y+3	; 0x03
     954:	9c 81       	ldd	r25, Y+4	; 0x04
     956:	0e 94 99 10 	call	0x2132	; 0x2132 <__subsf3>
     95a:	9b 01       	movw	r18, r22
     95c:	ac 01       	movw	r20, r24
     95e:	69 85       	ldd	r22, Y+9	; 0x09
     960:	7a 85       	ldd	r23, Y+10	; 0x0a
     962:	8b 85       	ldd	r24, Y+11	; 0x0b
     964:	9c 85       	ldd	r25, Y+12	; 0x0c
     966:	0e 94 9a 10 	call	0x2134	; 0x2134 <__addsf3>
	double apparent_longitude = calculate_solar_apparent_longitude(true_longitude, JC);
     96a:	a7 01       	movw	r20, r14
     96c:	96 01       	movw	r18, r12
     96e:	0e 94 28 03 	call	0x650	; 0x650 <calculate_solar_apparent_longitude>
     972:	2b 01       	movw	r4, r22
     974:	3c 01       	movw	r6, r24
	double obliquity = calculate_obliquity_of_ecliptic(JC);
     976:	c7 01       	movw	r24, r14
     978:	b6 01       	movw	r22, r12
     97a:	0e 94 6d 03 	call	0x6da	; 0x6da <calculate_obliquity_of_ecliptic>
     97e:	9b 01       	movw	r18, r22
     980:	ac 01       	movw	r20, r24
	double declination = calculate_solar_declination(apparent_longitude, obliquity);
     982:	c3 01       	movw	r24, r6
     984:	b2 01       	movw	r22, r4
     986:	0e 94 b0 03 	call	0x760	; 0x760 <calculate_solar_declination>
     98a:	69 87       	std	Y+9, r22	; 0x09
     98c:	7a 87       	std	Y+10, r23	; 0x0a
     98e:	8b 87       	std	Y+11, r24	; 0x0b
     990:	9c 87       	std	Y+12, r25	; 0x0c

	double eq_time = 4.0 * (280.46646 + 36000.76983 * JC - apparent_longitude +
     992:	25 ec       	ldi	r18, 0xC5	; 197
     994:	30 ea       	ldi	r19, 0xA0	; 160
     996:	4c e0       	ldi	r20, 0x0C	; 12
     998:	57 e4       	ldi	r21, 0x47	; 71
     99a:	c7 01       	movw	r24, r14
     99c:	b6 01       	movw	r22, r12
     99e:	0e 94 4a 14 	call	0x2894	; 0x2894 <__mulsf3>
     9a2:	25 eb       	ldi	r18, 0xB5	; 181
     9a4:	3b e3       	ldi	r19, 0x3B	; 59
     9a6:	4c e8       	ldi	r20, 0x8C	; 140
     9a8:	53 e4       	ldi	r21, 0x43	; 67
     9aa:	0e 94 9a 10 	call	0x2134	; 0x2134 <__addsf3>
     9ae:	6b 01       	movw	r12, r22
     9b0:	7c 01       	movw	r14, r24
     9b2:	a3 01       	movw	r20, r6
     9b4:	92 01       	movw	r18, r4
     9b6:	0e 94 99 10 	call	0x2132	; 0x2132 <__subsf3>
     9ba:	2b 01       	movw	r4, r22
     9bc:	3c 01       	movw	r6, r24
	(2.466 * sin(2 * DEG_TO_RAD * (280.46646 + 36000.76983 * JC))) -
     9be:	25 e3       	ldi	r18, 0x35	; 53
     9c0:	3a ef       	ldi	r19, 0xFA	; 250
     9c2:	4e e0       	ldi	r20, 0x0E	; 14
     9c4:	5d e3       	ldi	r21, 0x3D	; 61
     9c6:	c7 01       	movw	r24, r14
     9c8:	b6 01       	movw	r22, r12
     9ca:	0e 94 4a 14 	call	0x2894	; 0x2894 <__mulsf3>
     9ce:	0e 94 b7 14 	call	0x296e	; 0x296e <sin>
     9d2:	22 ef       	ldi	r18, 0xF2	; 242
     9d4:	32 ed       	ldi	r19, 0xD2	; 210
     9d6:	4d e1       	ldi	r20, 0x1D	; 29
     9d8:	50 e4       	ldi	r21, 0x40	; 64
     9da:	0e 94 4a 14 	call	0x2894	; 0x2894 <__mulsf3>
     9de:	9b 01       	movw	r18, r22
     9e0:	ac 01       	movw	r20, r24
	double true_longitude = fmod(280.46646 + JC * (36000.76983 + JC * 0.0003032), 360.0) + (true_anomaly - M);
	double apparent_longitude = calculate_solar_apparent_longitude(true_longitude, JC);
	double obliquity = calculate_obliquity_of_ecliptic(JC);
	double declination = calculate_solar_declination(apparent_longitude, obliquity);

	double eq_time = 4.0 * (280.46646 + 36000.76983 * JC - apparent_longitude +
     9e2:	c3 01       	movw	r24, r6
     9e4:	b2 01       	movw	r22, r4
     9e6:	0e 94 9a 10 	call	0x2134	; 0x2134 <__addsf3>
     9ea:	2b 01       	movw	r4, r22
     9ec:	3c 01       	movw	r6, r24
	(2.466 * sin(2 * DEG_TO_RAD * (280.46646 + 36000.76983 * JC))) -
	(0.053 * sin(4 * DEG_TO_RAD * (280.46646 + 36000.76983 * JC))));
     9ee:	25 e3       	ldi	r18, 0x35	; 53
     9f0:	3a ef       	ldi	r19, 0xFA	; 250
     9f2:	4e e8       	ldi	r20, 0x8E	; 142
     9f4:	5d e3       	ldi	r21, 0x3D	; 61
     9f6:	c7 01       	movw	r24, r14
     9f8:	b6 01       	movw	r22, r12
     9fa:	0e 94 4a 14 	call	0x2894	; 0x2894 <__mulsf3>
     9fe:	0e 94 b7 14 	call	0x296e	; 0x296e <sin>
     a02:	27 e8       	ldi	r18, 0x87	; 135
     a04:	36 e1       	ldi	r19, 0x16	; 22
     a06:	49 e5       	ldi	r20, 0x59	; 89
     a08:	5d e3       	ldi	r21, 0x3D	; 61
     a0a:	0e 94 4a 14 	call	0x2894	; 0x2894 <__mulsf3>
     a0e:	9b 01       	movw	r18, r22
     a10:	ac 01       	movw	r20, r24
	double apparent_longitude = calculate_solar_apparent_longitude(true_longitude, JC);
	double obliquity = calculate_obliquity_of_ecliptic(JC);
	double declination = calculate_solar_declination(apparent_longitude, obliquity);

	double eq_time = 4.0 * (280.46646 + 36000.76983 * JC - apparent_longitude +
	(2.466 * sin(2 * DEG_TO_RAD * (280.46646 + 36000.76983 * JC))) -
     a12:	c3 01       	movw	r24, r6
     a14:	b2 01       	movw	r22, r4
     a16:	0e 94 99 10 	call	0x2132	; 0x2132 <__subsf3>
	double true_longitude = fmod(280.46646 + JC * (36000.76983 + JC * 0.0003032), 360.0) + (true_anomaly - M);
	double apparent_longitude = calculate_solar_apparent_longitude(true_longitude, JC);
	double obliquity = calculate_obliquity_of_ecliptic(JC);
	double declination = calculate_solar_declination(apparent_longitude, obliquity);

	double eq_time = 4.0 * (280.46646 + 36000.76983 * JC - apparent_longitude +
     a1a:	20 e0       	ldi	r18, 0x00	; 0
     a1c:	30 e0       	ldi	r19, 0x00	; 0
     a1e:	40 e8       	ldi	r20, 0x80	; 128
     a20:	50 e4       	ldi	r21, 0x40	; 64
     a22:	0e 94 4a 14 	call	0x2894	; 0x2894 <__mulsf3>
     a26:	69 83       	std	Y+1, r22	; 0x01
     a28:	7a 83       	std	Y+2, r23	; 0x02
     a2a:	8b 83       	std	Y+3, r24	; 0x03
     a2c:	9c 83       	std	Y+4, r25	; 0x04
	(2.466 * sin(2 * DEG_TO_RAD * (280.46646 + 36000.76983 * JC))) -
	(0.053 * sin(4 * DEG_TO_RAD * (280.46646 + 36000.76983 * JC))));
	double solar_time = (params->hour * 60 + params->minute + params->second / 60.0 + eq_time + 4.0 * params->longitude - 60.0 * timezone_offset) / 60.0;
     a2e:	8c e3       	ldi	r24, 0x3C	; 60
     a30:	82 9d       	mul	r24, r2
     a32:	70 01       	movw	r14, r0
     a34:	83 9d       	mul	r24, r3
     a36:	f0 0c       	add	r15, r0
     a38:	11 24       	eor	r1, r1
     a3a:	e0 0e       	add	r14, r16
     a3c:	f1 1e       	adc	r15, r17
     a3e:	b4 01       	movw	r22, r8
     a40:	99 0c       	add	r9, r9
     a42:	88 0b       	sbc	r24, r24
     a44:	99 0b       	sbc	r25, r25
     a46:	0e 94 47 12 	call	0x248e	; 0x248e <__floatsisf>
     a4a:	20 e0       	ldi	r18, 0x00	; 0
     a4c:	30 e0       	ldi	r19, 0x00	; 0
     a4e:	40 e7       	ldi	r20, 0x70	; 112
     a50:	52 e4       	ldi	r21, 0x42	; 66
     a52:	0e 94 9d 11 	call	0x233a	; 0x233a <__divsf3>
     a56:	2b 01       	movw	r4, r22
     a58:	3c 01       	movw	r6, r24
     a5a:	b7 01       	movw	r22, r14
     a5c:	ff 0c       	add	r15, r15
     a5e:	88 0b       	sbc	r24, r24
     a60:	99 0b       	sbc	r25, r25
     a62:	0e 94 47 12 	call	0x248e	; 0x248e <__floatsisf>
     a66:	a3 01       	movw	r20, r6
     a68:	92 01       	movw	r18, r4
     a6a:	0e 94 9a 10 	call	0x2134	; 0x2134 <__addsf3>
     a6e:	9b 01       	movw	r18, r22
     a70:	ac 01       	movw	r20, r24
     a72:	69 81       	ldd	r22, Y+1	; 0x01
     a74:	7a 81       	ldd	r23, Y+2	; 0x02
     a76:	8b 81       	ldd	r24, Y+3	; 0x03
     a78:	9c 81       	ldd	r25, Y+4	; 0x04
     a7a:	0e 94 9a 10 	call	0x2134	; 0x2134 <__addsf3>
     a7e:	6b 01       	movw	r12, r22
     a80:	7c 01       	movw	r14, r24
     a82:	ef 85       	ldd	r30, Y+15	; 0x0f
     a84:	f8 89       	ldd	r31, Y+16	; 0x10
     a86:	64 81       	ldd	r22, Z+4	; 0x04
     a88:	75 81       	ldd	r23, Z+5	; 0x05
     a8a:	86 81       	ldd	r24, Z+6	; 0x06
     a8c:	97 81       	ldd	r25, Z+7	; 0x07
     a8e:	20 e0       	ldi	r18, 0x00	; 0
     a90:	30 e0       	ldi	r19, 0x00	; 0
     a92:	40 e8       	ldi	r20, 0x80	; 128
     a94:	50 e4       	ldi	r21, 0x40	; 64
     a96:	0e 94 4a 14 	call	0x2894	; 0x2894 <__mulsf3>
     a9a:	9b 01       	movw	r18, r22
     a9c:	ac 01       	movw	r20, r24
     a9e:	c7 01       	movw	r24, r14
     aa0:	b6 01       	movw	r22, r12
     aa2:	0e 94 9a 10 	call	0x2134	; 0x2134 <__addsf3>
     aa6:	6b 01       	movw	r12, r22
     aa8:	7c 01       	movw	r14, r24
     aaa:	b5 01       	movw	r22, r10
     aac:	bb 0c       	add	r11, r11
     aae:	88 0b       	sbc	r24, r24
     ab0:	99 0b       	sbc	r25, r25
     ab2:	0e 94 47 12 	call	0x248e	; 0x248e <__floatsisf>
     ab6:	20 e0       	ldi	r18, 0x00	; 0
     ab8:	30 e0       	ldi	r19, 0x00	; 0
     aba:	40 e7       	ldi	r20, 0x70	; 112
     abc:	52 e4       	ldi	r21, 0x42	; 66
     abe:	0e 94 4a 14 	call	0x2894	; 0x2894 <__mulsf3>
     ac2:	9b 01       	movw	r18, r22
     ac4:	ac 01       	movw	r20, r24
     ac6:	c7 01       	movw	r24, r14
     ac8:	b6 01       	movw	r22, r12
     aca:	0e 94 99 10 	call	0x2132	; 0x2132 <__subsf3>
     ace:	20 e0       	ldi	r18, 0x00	; 0
     ad0:	30 e0       	ldi	r19, 0x00	; 0
     ad2:	40 e7       	ldi	r20, 0x70	; 112
     ad4:	52 e4       	ldi	r21, 0x42	; 66
     ad6:	0e 94 9d 11 	call	0x233a	; 0x233a <__divsf3>

	double hour_angle = (solar_time - 12.0) * 15.0;
     ada:	20 e0       	ldi	r18, 0x00	; 0
     adc:	30 e0       	ldi	r19, 0x00	; 0
     ade:	40 e4       	ldi	r20, 0x40	; 64
     ae0:	51 e4       	ldi	r21, 0x41	; 65
     ae2:	0e 94 99 10 	call	0x2132	; 0x2132 <__subsf3>
     ae6:	20 e0       	ldi	r18, 0x00	; 0
     ae8:	30 e0       	ldi	r19, 0x00	; 0
     aea:	40 e7       	ldi	r20, 0x70	; 112
     aec:	51 e4       	ldi	r21, 0x41	; 65
     aee:	0e 94 4a 14 	call	0x2894	; 0x2894 <__mulsf3>
     af2:	69 83       	std	Y+1, r22	; 0x01
     af4:	7a 83       	std	Y+2, r23	; 0x02
     af6:	8b 83       	std	Y+3, r24	; 0x03
     af8:	9c 83       	std	Y+4, r25	; 0x04

	double latitude_rad = params->latitude * DEG_TO_RAD;
     afa:	ef 85       	ldd	r30, Y+15	; 0x0f
     afc:	f8 89       	ldd	r31, Y+16	; 0x10
     afe:	60 81       	ld	r22, Z
     b00:	71 81       	ldd	r23, Z+1	; 0x01
     b02:	82 81       	ldd	r24, Z+2	; 0x02
     b04:	93 81       	ldd	r25, Z+3	; 0x03
     b06:	25 e3       	ldi	r18, 0x35	; 53
     b08:	3a ef       	ldi	r19, 0xFA	; 250
     b0a:	4e e8       	ldi	r20, 0x8E	; 142
     b0c:	5c e3       	ldi	r21, 0x3C	; 60
     b0e:	0e 94 4a 14 	call	0x2894	; 0x2894 <__mulsf3>
     b12:	6b 01       	movw	r12, r22
     b14:	7c 01       	movw	r14, r24
	double declination_rad = declination * DEG_TO_RAD;
     b16:	25 e3       	ldi	r18, 0x35	; 53
     b18:	3a ef       	ldi	r19, 0xFA	; 250
     b1a:	4e e8       	ldi	r20, 0x8E	; 142
     b1c:	5c e3       	ldi	r21, 0x3C	; 60
     b1e:	69 85       	ldd	r22, Y+9	; 0x09
     b20:	7a 85       	ldd	r23, Y+10	; 0x0a
     b22:	8b 85       	ldd	r24, Y+11	; 0x0b
     b24:	9c 85       	ldd	r25, Y+12	; 0x0c
     b26:	0e 94 4a 14 	call	0x2894	; 0x2894 <__mulsf3>
     b2a:	4b 01       	movw	r8, r22
     b2c:	5c 01       	movw	r10, r24
	double hour_angle_rad = hour_angle * DEG_TO_RAD;
     b2e:	25 e3       	ldi	r18, 0x35	; 53
     b30:	3a ef       	ldi	r19, 0xFA	; 250
     b32:	4e e8       	ldi	r20, 0x8E	; 142
     b34:	5c e3       	ldi	r21, 0x3C	; 60
     b36:	69 81       	ldd	r22, Y+1	; 0x01
     b38:	7a 81       	ldd	r23, Y+2	; 0x02
     b3a:	8b 81       	ldd	r24, Y+3	; 0x03
     b3c:	9c 81       	ldd	r25, Y+4	; 0x04
     b3e:	0e 94 4a 14 	call	0x2894	; 0x2894 <__mulsf3>
     b42:	69 87       	std	Y+9, r22	; 0x09
     b44:	7a 87       	std	Y+10, r23	; 0x0a
     b46:	8b 87       	std	Y+11, r24	; 0x0b
     b48:	9c 87       	std	Y+12, r25	; 0x0c

	double sin_elevation = sin(latitude_rad) * sin(declination_rad) +
     b4a:	c7 01       	movw	r24, r14
     b4c:	b6 01       	movw	r22, r12
     b4e:	0e 94 b7 14 	call	0x296e	; 0x296e <sin>
     b52:	6d 83       	std	Y+5, r22	; 0x05
     b54:	7e 83       	std	Y+6, r23	; 0x06
     b56:	8f 83       	std	Y+7, r24	; 0x07
     b58:	98 87       	std	Y+8, r25	; 0x08
     b5a:	c5 01       	movw	r24, r10
     b5c:	b4 01       	movw	r22, r8
     b5e:	0e 94 b7 14 	call	0x296e	; 0x296e <sin>
     b62:	2b 01       	movw	r4, r22
     b64:	3c 01       	movw	r6, r24
     b66:	9b 01       	movw	r18, r22
     b68:	ac 01       	movw	r20, r24
     b6a:	6d 81       	ldd	r22, Y+5	; 0x05
     b6c:	7e 81       	ldd	r23, Y+6	; 0x06
     b6e:	8f 81       	ldd	r24, Y+7	; 0x07
     b70:	98 85       	ldd	r25, Y+8	; 0x08
     b72:	0e 94 4a 14 	call	0x2894	; 0x2894 <__mulsf3>
     b76:	6f 87       	std	Y+15, r22	; 0x0f
     b78:	78 8b       	std	Y+16, r23	; 0x10
     b7a:	89 8b       	std	Y+17, r24	; 0x11
     b7c:	9a 8b       	std	Y+18, r25	; 0x12
	cos(latitude_rad) * cos(declination_rad) * cos(hour_angle_rad);
     b7e:	c7 01       	movw	r24, r14
     b80:	b6 01       	movw	r22, r12
     b82:	0e 94 98 11 	call	0x2330	; 0x2330 <cos>
     b86:	6b 01       	movw	r12, r22
     b88:	7c 01       	movw	r14, r24
     b8a:	c5 01       	movw	r24, r10
     b8c:	b4 01       	movw	r22, r8
     b8e:	0e 94 98 11 	call	0x2330	; 0x2330 <cos>
     b92:	9b 01       	movw	r18, r22
     b94:	ac 01       	movw	r20, r24
     b96:	c7 01       	movw	r24, r14
     b98:	b6 01       	movw	r22, r12
     b9a:	0e 94 4a 14 	call	0x2894	; 0x2894 <__mulsf3>
     b9e:	4b 01       	movw	r8, r22
     ba0:	5c 01       	movw	r10, r24
     ba2:	69 85       	ldd	r22, Y+9	; 0x09
     ba4:	7a 85       	ldd	r23, Y+10	; 0x0a
     ba6:	8b 85       	ldd	r24, Y+11	; 0x0b
     ba8:	9c 85       	ldd	r25, Y+12	; 0x0c
     baa:	0e 94 98 11 	call	0x2330	; 0x2330 <cos>
     bae:	9b 01       	movw	r18, r22
     bb0:	ac 01       	movw	r20, r24
     bb2:	c5 01       	movw	r24, r10
     bb4:	b4 01       	movw	r22, r8
     bb6:	0e 94 4a 14 	call	0x2894	; 0x2894 <__mulsf3>
     bba:	9b 01       	movw	r18, r22
     bbc:	ac 01       	movw	r20, r24

	double latitude_rad = params->latitude * DEG_TO_RAD;
	double declination_rad = declination * DEG_TO_RAD;
	double hour_angle_rad = hour_angle * DEG_TO_RAD;

	double sin_elevation = sin(latitude_rad) * sin(declination_rad) +
     bbe:	6f 85       	ldd	r22, Y+15	; 0x0f
     bc0:	78 89       	ldd	r23, Y+16	; 0x10
     bc2:	89 89       	ldd	r24, Y+17	; 0x11
     bc4:	9a 89       	ldd	r25, Y+18	; 0x12
     bc6:	0e 94 9a 10 	call	0x2134	; 0x2134 <__addsf3>
	cos(latitude_rad) * cos(declination_rad) * cos(hour_angle_rad);

	*elevation = asin(sin_elevation) * RAD_TO_DEG;
     bca:	0e 94 06 11 	call	0x220c	; 0x220c <asin>
     bce:	21 ee       	ldi	r18, 0xE1	; 225
     bd0:	3e e2       	ldi	r19, 0x2E	; 46
     bd2:	45 e6       	ldi	r20, 0x65	; 101
     bd4:	52 e4       	ldi	r21, 0x42	; 66
     bd6:	0e 94 4a 14 	call	0x2894	; 0x2894 <__mulsf3>
     bda:	4b 01       	movw	r8, r22
     bdc:	5c 01       	movw	r10, r24
     bde:	ed 85       	ldd	r30, Y+13	; 0x0d
     be0:	fe 85       	ldd	r31, Y+14	; 0x0e
     be2:	60 83       	st	Z, r22
     be4:	71 83       	std	Z+1, r23	; 0x01
     be6:	82 83       	std	Z+2, r24	; 0x02
     be8:	93 83       	std	Z+3, r25	; 0x03
	*elevation += calculate_atmospheric_refraction(*elevation);
     bea:	0e 94 e7 03 	call	0x7ce	; 0x7ce <calculate_atmospheric_refraction>
     bee:	9b 01       	movw	r18, r22
     bf0:	ac 01       	movw	r20, r24
     bf2:	c5 01       	movw	r24, r10
     bf4:	b4 01       	movw	r22, r8
     bf6:	0e 94 9a 10 	call	0x2134	; 0x2134 <__addsf3>
     bfa:	ed 85       	ldd	r30, Y+13	; 0x0d
     bfc:	fe 85       	ldd	r31, Y+14	; 0x0e
     bfe:	60 83       	st	Z, r22
     c00:	71 83       	std	Z+1, r23	; 0x01
     c02:	82 83       	std	Z+2, r24	; 0x02
     c04:	93 83       	std	Z+3, r25	; 0x03

	double cos_azimuth = (sin(declination_rad) - sin(latitude_rad) * sin(DEG_TO_RAD * (*elevation))) /
     c06:	25 e3       	ldi	r18, 0x35	; 53
     c08:	3a ef       	ldi	r19, 0xFA	; 250
     c0a:	4e e8       	ldi	r20, 0x8E	; 142
     c0c:	5c e3       	ldi	r21, 0x3C	; 60
     c0e:	0e 94 4a 14 	call	0x2894	; 0x2894 <__mulsf3>
     c12:	4b 01       	movw	r8, r22
     c14:	5c 01       	movw	r10, r24
     c16:	0e 94 b7 14 	call	0x296e	; 0x296e <sin>
     c1a:	9b 01       	movw	r18, r22
     c1c:	ac 01       	movw	r20, r24
     c1e:	6d 81       	ldd	r22, Y+5	; 0x05
     c20:	7e 81       	ldd	r23, Y+6	; 0x06
     c22:	8f 81       	ldd	r24, Y+7	; 0x07
     c24:	98 85       	ldd	r25, Y+8	; 0x08
     c26:	0e 94 4a 14 	call	0x2894	; 0x2894 <__mulsf3>
     c2a:	9b 01       	movw	r18, r22
     c2c:	ac 01       	movw	r20, r24
     c2e:	c3 01       	movw	r24, r6
     c30:	b2 01       	movw	r22, r4
     c32:	0e 94 99 10 	call	0x2132	; 0x2132 <__subsf3>
     c36:	2b 01       	movw	r4, r22
     c38:	3c 01       	movw	r6, r24
	(cos(latitude_rad) * cos(DEG_TO_RAD * (*elevation)));
     c3a:	c5 01       	movw	r24, r10
     c3c:	b4 01       	movw	r22, r8
     c3e:	0e 94 98 11 	call	0x2330	; 0x2330 <cos>
     c42:	9b 01       	movw	r18, r22
     c44:	ac 01       	movw	r20, r24
     c46:	c7 01       	movw	r24, r14
     c48:	b6 01       	movw	r22, r12
     c4a:	0e 94 4a 14 	call	0x2894	; 0x2894 <__mulsf3>
     c4e:	9b 01       	movw	r18, r22
     c50:	ac 01       	movw	r20, r24
	cos(latitude_rad) * cos(declination_rad) * cos(hour_angle_rad);

	*elevation = asin(sin_elevation) * RAD_TO_DEG;
	*elevation += calculate_atmospheric_refraction(*elevation);

	double cos_azimuth = (sin(declination_rad) - sin(latitude_rad) * sin(DEG_TO_RAD * (*elevation))) /
     c52:	c3 01       	movw	r24, r6
     c54:	b2 01       	movw	r22, r4
     c56:	0e 94 9d 11 	call	0x233a	; 0x233a <__divsf3>
	(cos(latitude_rad) * cos(DEG_TO_RAD * (*elevation)));
	double azimuth_temp = acos(cos_azimuth) * RAD_TO_DEG;
     c5a:	0e 94 88 10 	call	0x2110	; 0x2110 <acos>
     c5e:	21 ee       	ldi	r18, 0xE1	; 225
     c60:	3e e2       	ldi	r19, 0x2E	; 46
     c62:	45 e6       	ldi	r20, 0x65	; 101
     c64:	52 e4       	ldi	r21, 0x42	; 66
     c66:	0e 94 4a 14 	call	0x2894	; 0x2894 <__mulsf3>
     c6a:	6b 01       	movw	r12, r22
     c6c:	7c 01       	movw	r14, r24

	if (hour_angle > 0) {
     c6e:	20 e0       	ldi	r18, 0x00	; 0
     c70:	30 e0       	ldi	r19, 0x00	; 0
     c72:	a9 01       	movw	r20, r18
     c74:	69 81       	ldd	r22, Y+1	; 0x01
     c76:	7a 81       	ldd	r23, Y+2	; 0x02
     c78:	8b 81       	ldd	r24, Y+3	; 0x03
     c7a:	9c 81       	ldd	r25, Y+4	; 0x04
     c7c:	0e 94 3d 14 	call	0x287a	; 0x287a <__gesf2>
     c80:	18 16       	cp	r1, r24
     c82:	7c f4       	brge	.+30     	; 0xca2 <calculate_solar_position+0x45a>
		*azimuth = 360.0 - azimuth_temp;
     c84:	a7 01       	movw	r20, r14
     c86:	96 01       	movw	r18, r12
     c88:	60 e0       	ldi	r22, 0x00	; 0
     c8a:	70 e0       	ldi	r23, 0x00	; 0
     c8c:	84 eb       	ldi	r24, 0xB4	; 180
     c8e:	93 e4       	ldi	r25, 0x43	; 67
     c90:	0e 94 99 10 	call	0x2132	; 0x2132 <__subsf3>
     c94:	eb 89       	ldd	r30, Y+19	; 0x13
     c96:	fc 89       	ldd	r31, Y+20	; 0x14
     c98:	60 83       	st	Z, r22
     c9a:	71 83       	std	Z+1, r23	; 0x01
     c9c:	82 83       	std	Z+2, r24	; 0x02
     c9e:	93 83       	std	Z+3, r25	; 0x03
     ca0:	06 c0       	rjmp	.+12     	; 0xcae <calculate_solar_position+0x466>
		} else {
		*azimuth = azimuth_temp;
     ca2:	eb 89       	ldd	r30, Y+19	; 0x13
     ca4:	fc 89       	ldd	r31, Y+20	; 0x14
     ca6:	c0 82       	st	Z, r12
     ca8:	d1 82       	std	Z+1, r13	; 0x01
     caa:	e2 82       	std	Z+2, r14	; 0x02
     cac:	f3 82       	std	Z+3, r15	; 0x03
	}
     cae:	64 96       	adiw	r28, 0x14	; 20
     cb0:	cd bf       	out	0x3d, r28	; 61
     cb2:	de bf       	out	0x3e, r29	; 62
     cb4:	df 91       	pop	r29
     cb6:	cf 91       	pop	r28
     cb8:	1f 91       	pop	r17
     cba:	0f 91       	pop	r16
     cbc:	ff 90       	pop	r15
     cbe:	ef 90       	pop	r14
     cc0:	df 90       	pop	r13
     cc2:	cf 90       	pop	r12
     cc4:	bf 90       	pop	r11
     cc6:	af 90       	pop	r10
     cc8:	9f 90       	pop	r9
     cca:	8f 90       	pop	r8
     ccc:	7f 90       	pop	r7
     cce:	6f 90       	pop	r6
     cd0:	5f 90       	pop	r5
     cd2:	4f 90       	pop	r4
     cd4:	3f 90       	pop	r3
     cd6:	2f 90       	pop	r2
     cd8:	08 95       	ret

00000cda <azel>:
	else {
		sensor_top_of_rows[Row] = (int16_t)sensor_data[rows[Row]->start];
	}
}*/

void azel(uint8_t Row) {
     cda:	2f 92       	push	r2
     cdc:	3f 92       	push	r3
     cde:	4f 92       	push	r4
     ce0:	5f 92       	push	r5
     ce2:	6f 92       	push	r6
     ce4:	7f 92       	push	r7
     ce6:	8f 92       	push	r8
     ce8:	9f 92       	push	r9
     cea:	af 92       	push	r10
     cec:	bf 92       	push	r11
     cee:	cf 92       	push	r12
     cf0:	df 92       	push	r13
     cf2:	ef 92       	push	r14
     cf4:	ff 92       	push	r15
     cf6:	0f 93       	push	r16
     cf8:	1f 93       	push	r17
     cfa:	cf 93       	push	r28
     cfc:	df 93       	push	r29
     cfe:	cd b7       	in	r28, 0x3d	; 61
     d00:	de b7       	in	r29, 0x3e	; 62
     d02:	ef 97       	sbiw	r28, 0x3f	; 63
     d04:	cd bf       	out	0x3d, r28	; 61
     d06:	de bf       	out	0x3e, r29	; 62
     d08:	8b ab       	std	Y+51, r24	; 0x33
	}
	else {
		// Jei Row = 4 (elevacija), tiesiog naudojame pirmà sensorá kaip topo reikðmæ
		sensor_top_of_rows[Row] = (int16_t)sensor_data[rows[Row]->start];
	}
}
     d0a:	2d b7       	in	r18, 0x3d	; 61
     d0c:	3e b7       	in	r19, 0x3e	; 62
     d0e:	2c ab       	std	Y+52, r18	; 0x34
     d10:	3d ab       	std	Y+53, r19	; 0x35
		sensor_top_of_rows[Row] = (int16_t)sensor_data[rows[Row]->start];
	}
}*/

void azel(uint8_t Row) {
	ROW *rows[5] = {&first, &second, &third, &fourth, &fifth};
     d12:	8a e0       	ldi	r24, 0x0A	; 10
     d14:	e6 ef       	ldi	r30, 0xF6	; 246
     d16:	f5 eb       	ldi	r31, 0xB5	; 181
     d18:	de 01       	movw	r26, r28
     d1a:	11 96       	adiw	r26, 0x01	; 1
     d1c:	01 90       	ld	r0, Z+
     d1e:	0d 92       	st	X+, r0
     d20:	8a 95       	dec	r24
     d22:	e1 f7       	brne	.-8      	; 0xd1c <azel+0x42>

	// Periodinë interpoliacija objektams first, second, third ir fifth
	if (Row != 3) {
     d24:	3b a9       	ldd	r19, Y+51	; 0x33
     d26:	33 30       	cpi	r19, 0x03	; 3
     d28:	09 f4       	brne	.+2      	; 0xd2c <azel+0x52>
     d2a:	1a c6       	rjmp	.+3124   	; 0x1960 <azel+0xc86>
     d2c:	4d b7       	in	r20, 0x3d	; 61
     d2e:	5e b7       	in	r21, 0x3e	; 62
     d30:	4e af       	std	Y+62, r20	; 0x3e
     d32:	5f af       	std	Y+63, r21	; 0x3f
		int total_points = rows[Row]->total + 1; // Papildomas taðkas intervalui iki pirmo elemento
     d34:	83 2f       	mov	r24, r19
     d36:	90 e0       	ldi	r25, 0x00	; 0
     d38:	8c af       	std	Y+60, r24	; 0x3c
     d3a:	9d af       	std	Y+61, r25	; 0x3d
     d3c:	fc 01       	movw	r30, r24
     d3e:	ee 0f       	add	r30, r30
     d40:	ff 1f       	adc	r31, r31
     d42:	a1 e0       	ldi	r26, 0x01	; 1
     d44:	b0 e0       	ldi	r27, 0x00	; 0
     d46:	ac 0f       	add	r26, r28
     d48:	bd 1f       	adc	r27, r29
     d4a:	ea 0f       	add	r30, r26
     d4c:	fb 1f       	adc	r31, r27
     d4e:	40 80       	ld	r4, Z
     d50:	51 80       	ldd	r5, Z+1	; 0x01
     d52:	f2 01       	movw	r30, r4
     d54:	21 81       	ldd	r18, Z+1	; 0x01
     d56:	30 e0       	ldi	r19, 0x00	; 0
     d58:	c9 01       	movw	r24, r18
     d5a:	01 96       	adiw	r24, 0x01	; 1
		float a[total_points], b[total_points], c[total_points], d[total_points];
     d5c:	88 0f       	add	r24, r24
     d5e:	99 1f       	adc	r25, r25
     d60:	88 0f       	add	r24, r24
     d62:	99 1f       	adc	r25, r25
     d64:	48 1b       	sub	r20, r24
     d66:	59 0b       	sbc	r21, r25
     d68:	4d bf       	out	0x3d, r20	; 61
     d6a:	5e bf       	out	0x3e, r21	; 62
     d6c:	ad b7       	in	r26, 0x3d	; 61
     d6e:	be b7       	in	r27, 0x3e	; 62
     d70:	11 96       	adiw	r26, 0x01	; 1
     d72:	ad a7       	std	Y+45, r26	; 0x2d
     d74:	be a7       	std	Y+46, r27	; 0x2e
     d76:	ed b7       	in	r30, 0x3d	; 61
     d78:	fe b7       	in	r31, 0x3e	; 62
     d7a:	e8 1b       	sub	r30, r24
     d7c:	f9 0b       	sbc	r31, r25
     d7e:	ed bf       	out	0x3d, r30	; 61
     d80:	fe bf       	out	0x3e, r31	; 62
     d82:	4d b7       	in	r20, 0x3d	; 61
     d84:	5e b7       	in	r21, 0x3e	; 62
     d86:	4f 5f       	subi	r20, 0xFF	; 255
     d88:	5f 4f       	sbci	r21, 0xFF	; 255
     d8a:	4f a7       	std	Y+47, r20	; 0x2f
     d8c:	58 ab       	std	Y+48, r21	; 0x30
     d8e:	ad b7       	in	r26, 0x3d	; 61
     d90:	be b7       	in	r27, 0x3e	; 62
     d92:	a8 1b       	sub	r26, r24
     d94:	b9 0b       	sbc	r27, r25
     d96:	ad bf       	out	0x3d, r26	; 61
     d98:	be bf       	out	0x3e, r27	; 62
     d9a:	ed b7       	in	r30, 0x3d	; 61
     d9c:	fe b7       	in	r31, 0x3e	; 62
     d9e:	31 96       	adiw	r30, 0x01	; 1
     da0:	ea af       	std	Y+58, r30	; 0x3a
     da2:	fb af       	std	Y+59, r31	; 0x3b
     da4:	ed 8f       	std	Y+29, r30	; 0x1d
     da6:	fe 8f       	std	Y+30, r31	; 0x1e
     da8:	4d b7       	in	r20, 0x3d	; 61
     daa:	5e b7       	in	r21, 0x3e	; 62
     dac:	48 1b       	sub	r20, r24
     dae:	59 0b       	sbc	r21, r25
     db0:	4d bf       	out	0x3d, r20	; 61
     db2:	5e bf       	out	0x3e, r21	; 62
     db4:	ad b7       	in	r26, 0x3d	; 61
     db6:	be b7       	in	r27, 0x3e	; 62
     db8:	11 96       	adiw	r26, 0x01	; 1
     dba:	a9 ab       	std	Y+49, r26	; 0x31
     dbc:	ba ab       	std	Y+50, r27	; 0x32
		float h[total_points - 1], alpha[total_points - 1], l[total_points], mu[total_points], z[total_points];
     dbe:	22 0f       	add	r18, r18
     dc0:	33 1f       	adc	r19, r19
     dc2:	22 0f       	add	r18, r18
     dc4:	33 1f       	adc	r19, r19
     dc6:	ed b7       	in	r30, 0x3d	; 61
     dc8:	fe b7       	in	r31, 0x3e	; 62
     dca:	e2 1b       	sub	r30, r18
     dcc:	f3 0b       	sbc	r31, r19
     dce:	ed bf       	out	0x3d, r30	; 61
     dd0:	fe bf       	out	0x3e, r31	; 62
     dd2:	4d b7       	in	r20, 0x3d	; 61
     dd4:	5e b7       	in	r21, 0x3e	; 62
     dd6:	4f 5f       	subi	r20, 0xFF	; 255
     dd8:	5f 4f       	sbci	r21, 0xFF	; 255
     dda:	4f a3       	std	Y+39, r20	; 0x27
     ddc:	58 a7       	std	Y+40, r21	; 0x28
     dde:	3a 01       	movw	r6, r20
     de0:	ad b7       	in	r26, 0x3d	; 61
     de2:	be b7       	in	r27, 0x3e	; 62
     de4:	a2 1b       	sub	r26, r18
     de6:	b3 0b       	sbc	r27, r19
     de8:	ad bf       	out	0x3d, r26	; 61
     dea:	be bf       	out	0x3e, r27	; 62
     dec:	ed b7       	in	r30, 0x3d	; 61
     dee:	fe b7       	in	r31, 0x3e	; 62
     df0:	31 96       	adiw	r30, 0x01	; 1
     df2:	ee ab       	std	Y+54, r30	; 0x36
     df4:	ff ab       	std	Y+55, r31	; 0x37
     df6:	eb 8f       	std	Y+27, r30	; 0x1b
     df8:	fc 8f       	std	Y+28, r31	; 0x1c
     dfa:	2d b7       	in	r18, 0x3d	; 61
     dfc:	3e b7       	in	r19, 0x3e	; 62
     dfe:	28 1b       	sub	r18, r24
     e00:	39 0b       	sbc	r19, r25
     e02:	2d bf       	out	0x3d, r18	; 61
     e04:	3e bf       	out	0x3e, r19	; 62
     e06:	4d b7       	in	r20, 0x3d	; 61
     e08:	5e b7       	in	r21, 0x3e	; 62
     e0a:	4f 5f       	subi	r20, 0xFF	; 255
     e0c:	5f 4f       	sbci	r21, 0xFF	; 255
     e0e:	49 a7       	std	Y+41, r20	; 0x29
     e10:	5a a7       	std	Y+42, r21	; 0x2a
     e12:	49 a3       	std	Y+33, r20	; 0x21
     e14:	5a a3       	std	Y+34, r21	; 0x22
     e16:	ad b7       	in	r26, 0x3d	; 61
     e18:	be b7       	in	r27, 0x3e	; 62
     e1a:	a8 1b       	sub	r26, r24
     e1c:	b9 0b       	sbc	r27, r25
     e1e:	ad bf       	out	0x3d, r26	; 61
     e20:	be bf       	out	0x3e, r27	; 62
     e22:	ed b7       	in	r30, 0x3d	; 61
     e24:	fe b7       	in	r31, 0x3e	; 62
     e26:	31 96       	adiw	r30, 0x01	; 1
     e28:	e8 af       	std	Y+56, r30	; 0x38
     e2a:	f9 af       	std	Y+57, r31	; 0x39
     e2c:	eb 8b       	std	Y+19, r30	; 0x13
     e2e:	fc 8b       	std	Y+20, r31	; 0x14
     e30:	2d b7       	in	r18, 0x3d	; 61
     e32:	3e b7       	in	r19, 0x3e	; 62
     e34:	28 1b       	sub	r18, r24
     e36:	39 0b       	sbc	r19, r25
     e38:	2d bf       	out	0x3d, r18	; 61
     e3a:	3e bf       	out	0x3e, r19	; 62
     e3c:	4d b7       	in	r20, 0x3d	; 61
     e3e:	5e b7       	in	r21, 0x3e	; 62
     e40:	4f 5f       	subi	r20, 0xFF	; 255
     e42:	5f 4f       	sbci	r21, 0xFF	; 255
     e44:	4b a7       	std	Y+43, r20	; 0x2b
     e46:	5c a7       	std	Y+44, r21	; 0x2c
     e48:	4f 8f       	std	Y+31, r20	; 0x1f
     e4a:	58 a3       	std	Y+32, r21	; 0x20

		// Apskaièiuojame h reikðmes, átraukdami intervalà tarp paskutinio ir pirmo kampo
		for (int i = 0; i < rows[Row]->total - 1; i++) {
     e4c:	00 e0       	ldi	r16, 0x00	; 0
     e4e:	10 e0       	ldi	r17, 0x00	; 0
     e50:	29 c0       	rjmp	.+82     	; 0xea4 <azel+0x1ca>
			h[i] = rows[Row]->angles[i + 1] - rows[Row]->angles[i];
     e52:	d2 01       	movw	r26, r4
     e54:	12 96       	adiw	r26, 0x02	; 2
     e56:	2d 91       	ld	r18, X+
     e58:	3c 91       	ld	r19, X
     e5a:	13 97       	sbiw	r26, 0x03	; 3
     e5c:	78 01       	movw	r14, r16
     e5e:	bf ef       	ldi	r27, 0xFF	; 255
     e60:	eb 1a       	sub	r14, r27
     e62:	fb 0a       	sbc	r15, r27
     e64:	f7 01       	movw	r30, r14
     e66:	ee 0f       	add	r30, r30
     e68:	ff 1f       	adc	r31, r31
     e6a:	ee 0f       	add	r30, r30
     e6c:	ff 1f       	adc	r31, r31
     e6e:	e2 0f       	add	r30, r18
     e70:	f3 1f       	adc	r31, r19
     e72:	60 81       	ld	r22, Z
     e74:	71 81       	ldd	r23, Z+1	; 0x01
     e76:	82 81       	ldd	r24, Z+2	; 0x02
     e78:	93 81       	ldd	r25, Z+3	; 0x03
     e7a:	00 0f       	add	r16, r16
     e7c:	11 1f       	adc	r17, r17
     e7e:	00 0f       	add	r16, r16
     e80:	11 1f       	adc	r17, r17
     e82:	f9 01       	movw	r30, r18
     e84:	e0 0f       	add	r30, r16
     e86:	f1 1f       	adc	r31, r17
     e88:	20 81       	ld	r18, Z
     e8a:	31 81       	ldd	r19, Z+1	; 0x01
     e8c:	42 81       	ldd	r20, Z+2	; 0x02
     e8e:	53 81       	ldd	r21, Z+3	; 0x03
     e90:	0e 94 99 10 	call	0x2132	; 0x2132 <__subsf3>
     e94:	f3 01       	movw	r30, r6
     e96:	e0 0f       	add	r30, r16
     e98:	f1 1f       	adc	r31, r17
     e9a:	60 83       	st	Z, r22
     e9c:	71 83       	std	Z+1, r23	; 0x01
     e9e:	82 83       	std	Z+2, r24	; 0x02
     ea0:	93 83       	std	Z+3, r25	; 0x03
		int total_points = rows[Row]->total + 1; // Papildomas taðkas intervalui iki pirmo elemento
		float a[total_points], b[total_points], c[total_points], d[total_points];
		float h[total_points - 1], alpha[total_points - 1], l[total_points], mu[total_points], z[total_points];

		// Apskaièiuojame h reikðmes, átraukdami intervalà tarp paskutinio ir pirmo kampo
		for (int i = 0; i < rows[Row]->total - 1; i++) {
     ea2:	87 01       	movw	r16, r14
     ea4:	d2 01       	movw	r26, r4
     ea6:	11 96       	adiw	r26, 0x01	; 1
     ea8:	ec 91       	ld	r30, X
     eaa:	ee 2e       	mov	r14, r30
     eac:	f1 2c       	mov	r15, r1
     eae:	b1 e0       	ldi	r27, 0x01	; 1
     eb0:	eb 1a       	sub	r14, r27
     eb2:	f1 08       	sbc	r15, r1
     eb4:	0e 15       	cp	r16, r14
     eb6:	1f 05       	cpc	r17, r15
     eb8:	64 f2       	brlt	.-104    	; 0xe52 <azel+0x178>
     eba:	2e 2f       	mov	r18, r30
			h[i] = rows[Row]->angles[i + 1] - rows[Row]->angles[i];
		}

		float range = 360.0;
		if(Row == 4) //elevacijai 0-90 laipsniø
     ebc:	eb a9       	ldd	r30, Y+51	; 0x33
     ebe:	e4 30       	cpi	r30, 0x04	; 4
     ec0:	49 f0       	breq	.+18     	; 0xed4 <azel+0x1fa>
		// Apskaièiuojame h reikðmes, átraukdami intervalà tarp paskutinio ir pirmo kampo
		for (int i = 0; i < rows[Row]->total - 1; i++) {
			h[i] = rows[Row]->angles[i + 1] - rows[Row]->angles[i];
		}

		float range = 360.0;
     ec2:	80 e0       	ldi	r24, 0x00	; 0
     ec4:	90 e0       	ldi	r25, 0x00	; 0
     ec6:	a4 eb       	ldi	r26, 0xB4	; 180
     ec8:	b3 e4       	ldi	r27, 0x43	; 67
     eca:	8b a3       	std	Y+35, r24	; 0x23
     ecc:	9c a3       	std	Y+36, r25	; 0x24
     ece:	ad a3       	std	Y+37, r26	; 0x25
     ed0:	be a3       	std	Y+38, r27	; 0x26
     ed2:	08 c0       	rjmp	.+16     	; 0xee4 <azel+0x20a>
		if(Row == 4) //elevacijai 0-90 laipsniø
			range = 90.0;
     ed4:	80 e0       	ldi	r24, 0x00	; 0
     ed6:	90 e0       	ldi	r25, 0x00	; 0
     ed8:	a4 eb       	ldi	r26, 0xB4	; 180
     eda:	b2 e4       	ldi	r27, 0x42	; 66
     edc:	8b a3       	std	Y+35, r24	; 0x23
     ede:	9c a3       	std	Y+36, r25	; 0x24
     ee0:	ad a3       	std	Y+37, r26	; 0x25
     ee2:	be a3       	std	Y+38, r27	; 0x26

		h[rows[Row]->total - 1] = range - fmodf(fabs(rows[Row]->angles[rows[Row]->total - 1] - rows[Row]->angles[0]), range);
     ee4:	f2 01       	movw	r30, r4
     ee6:	a2 81       	ldd	r26, Z+2	; 0x02
     ee8:	b3 81       	ldd	r27, Z+3	; 0x03
     eea:	e2 2f       	mov	r30, r18
     eec:	f0 e0       	ldi	r31, 0x00	; 0
     eee:	e1 50       	subi	r30, 0x01	; 1
     ef0:	f0 4c       	sbci	r31, 0xC0	; 192
     ef2:	ee 0f       	add	r30, r30
     ef4:	ff 1f       	adc	r31, r31
     ef6:	ee 0f       	add	r30, r30
     ef8:	ff 1f       	adc	r31, r31
     efa:	ea 0f       	add	r30, r26
     efc:	fb 1f       	adc	r31, r27
     efe:	60 81       	ld	r22, Z
     f00:	71 81       	ldd	r23, Z+1	; 0x01
     f02:	82 81       	ldd	r24, Z+2	; 0x02
     f04:	93 81       	ldd	r25, Z+3	; 0x03
     f06:	2d 91       	ld	r18, X+
     f08:	3d 91       	ld	r19, X+
     f0a:	4d 91       	ld	r20, X+
     f0c:	5c 91       	ld	r21, X
     f0e:	0e 94 99 10 	call	0x2132	; 0x2132 <__subsf3>
     f12:	9f 77       	andi	r25, 0x7F	; 127
     f14:	2b a1       	ldd	r18, Y+35	; 0x23
     f16:	3c a1       	ldd	r19, Y+36	; 0x24
     f18:	4d a1       	ldd	r20, Y+37	; 0x25
     f1a:	5e a1       	ldd	r21, Y+38	; 0x26
     f1c:	0e 94 a4 12 	call	0x2548	; 0x2548 <fmod>
     f20:	9b 01       	movw	r18, r22
     f22:	ac 01       	movw	r20, r24
     f24:	6b a1       	ldd	r22, Y+35	; 0x23
     f26:	7c a1       	ldd	r23, Y+36	; 0x24
     f28:	8d a1       	ldd	r24, Y+37	; 0x25
     f2a:	9e a1       	ldd	r25, Y+38	; 0x26
     f2c:	0e 94 99 10 	call	0x2132	; 0x2132 <__subsf3>
     f30:	ee 0c       	add	r14, r14
     f32:	ff 1c       	adc	r15, r15
     f34:	ee 0c       	add	r14, r14
     f36:	ff 1c       	adc	r15, r15
     f38:	ef a1       	ldd	r30, Y+39	; 0x27
     f3a:	f8 a5       	ldd	r31, Y+40	; 0x28
     f3c:	ee 0d       	add	r30, r14
     f3e:	ff 1d       	adc	r31, r15
     f40:	60 83       	st	Z, r22
     f42:	71 83       	std	Z+1, r23	; 0x01
     f44:	82 83       	std	Z+2, r24	; 0x02
     f46:	93 83       	std	Z+3, r25	; 0x03

		// Apskaièiuojame alpha reikðmes, átraukdami paskutinës ir pirmos reikðmës skirtumà
		for (int i = 1; i < rows[Row]->total - 1; i++) {
     f48:	cc 24       	eor	r12, r12
     f4a:	c3 94       	inc	r12
     f4c:	d1 2c       	mov	r13, r1
     f4e:	a4 c0       	rjmp	.+328    	; 0x1098 <azel+0x3be>
			alpha[i] = (3.0f / h[i]) * ((float)rows[Row]->data[i + 1 + rows[Row]->start] - (float)rows[Row]->data[i + rows[Row]->start])
     f50:	76 01       	movw	r14, r12
     f52:	ee 0c       	add	r14, r14
     f54:	ff 1c       	adc	r15, r15
     f56:	ee 0c       	add	r14, r14
     f58:	ff 1c       	adc	r15, r15
     f5a:	f3 01       	movw	r30, r6
     f5c:	ee 0d       	add	r30, r14
     f5e:	ff 1d       	adc	r31, r15
     f60:	20 81       	ld	r18, Z
     f62:	31 81       	ldd	r19, Z+1	; 0x01
     f64:	42 81       	ldd	r20, Z+2	; 0x02
     f66:	53 81       	ldd	r21, Z+3	; 0x03
     f68:	60 e0       	ldi	r22, 0x00	; 0
     f6a:	70 e0       	ldi	r23, 0x00	; 0
     f6c:	80 e4       	ldi	r24, 0x40	; 64
     f6e:	90 e4       	ldi	r25, 0x40	; 64
     f70:	0e 94 9d 11 	call	0x233a	; 0x233a <__divsf3>
     f74:	6f 8b       	std	Y+23, r22	; 0x17
     f76:	78 8f       	std	Y+24, r23	; 0x18
     f78:	89 8f       	std	Y+25, r24	; 0x19
     f7a:	9a 8f       	std	Y+26, r25	; 0x1a
     f7c:	d2 01       	movw	r26, r4
     f7e:	14 96       	adiw	r26, 0x04	; 4
     f80:	ad 90       	ld	r10, X+
     f82:	bc 90       	ld	r11, X
     f84:	15 97       	sbiw	r26, 0x05	; 5
     f86:	46 01       	movw	r8, r12
     f88:	bf ef       	ldi	r27, 0xFF	; 255
     f8a:	8b 1a       	sub	r8, r27
     f8c:	9b 0a       	sbc	r9, r27
     f8e:	f2 01       	movw	r30, r4
     f90:	20 80       	ld	r2, Z
     f92:	31 2c       	mov	r3, r1
     f94:	f4 01       	movw	r30, r8
     f96:	e2 0d       	add	r30, r2
     f98:	f3 1d       	adc	r31, r3
     f9a:	ee 0f       	add	r30, r30
     f9c:	ff 1f       	adc	r31, r31
     f9e:	ea 0d       	add	r30, r10
     fa0:	fb 1d       	adc	r31, r11
     fa2:	60 81       	ld	r22, Z
     fa4:	71 81       	ldd	r23, Z+1	; 0x01
     fa6:	07 2e       	mov	r0, r23
     fa8:	00 0c       	add	r0, r0
     faa:	88 0b       	sbc	r24, r24
     fac:	99 0b       	sbc	r25, r25
     fae:	0e 94 47 12 	call	0x248e	; 0x248e <__floatsisf>
     fb2:	6f 87       	std	Y+15, r22	; 0x0f
     fb4:	78 8b       	std	Y+16, r23	; 0x10
     fb6:	89 8b       	std	Y+17, r24	; 0x11
     fb8:	9a 8b       	std	Y+18, r25	; 0x12
     fba:	f6 01       	movw	r30, r12
     fbc:	e2 0d       	add	r30, r2
     fbe:	f3 1d       	adc	r31, r3
     fc0:	ee 0f       	add	r30, r30
     fc2:	ff 1f       	adc	r31, r31
     fc4:	ea 0d       	add	r30, r10
     fc6:	fb 1d       	adc	r31, r11
     fc8:	60 81       	ld	r22, Z
     fca:	71 81       	ldd	r23, Z+1	; 0x01
     fcc:	07 2e       	mov	r0, r23
     fce:	00 0c       	add	r0, r0
     fd0:	88 0b       	sbc	r24, r24
     fd2:	99 0b       	sbc	r25, r25
     fd4:	0e 94 47 12 	call	0x248e	; 0x248e <__floatsisf>
     fd8:	6b 87       	std	Y+11, r22	; 0x0b
     fda:	7c 87       	std	Y+12, r23	; 0x0c
     fdc:	8d 87       	std	Y+13, r24	; 0x0d
     fde:	9e 87       	std	Y+14, r25	; 0x0e
     fe0:	9b 01       	movw	r18, r22
     fe2:	ac 01       	movw	r20, r24
     fe4:	6f 85       	ldd	r22, Y+15	; 0x0f
     fe6:	78 89       	ldd	r23, Y+16	; 0x10
     fe8:	89 89       	ldd	r24, Y+17	; 0x11
     fea:	9a 89       	ldd	r25, Y+18	; 0x12
     fec:	0e 94 99 10 	call	0x2132	; 0x2132 <__subsf3>
     ff0:	9b 01       	movw	r18, r22
     ff2:	ac 01       	movw	r20, r24
     ff4:	6f 89       	ldd	r22, Y+23	; 0x17
     ff6:	78 8d       	ldd	r23, Y+24	; 0x18
     ff8:	89 8d       	ldd	r24, Y+25	; 0x19
     ffa:	9a 8d       	ldd	r25, Y+26	; 0x1a
     ffc:	0e 94 4a 14 	call	0x2894	; 0x2894 <__mulsf3>
    1000:	6f 87       	std	Y+15, r22	; 0x0f
    1002:	78 8b       	std	Y+16, r23	; 0x10
    1004:	89 8b       	std	Y+17, r24	; 0x11
    1006:	9a 8b       	std	Y+18, r25	; 0x12
			- (3.0f / h[i - 1]) * ((float)rows[Row]->data[i + rows[Row]->start] - (float)rows[Row]->data[i - 1 + rows[Row]->start]);
    1008:	86 01       	movw	r16, r12
    100a:	01 50       	subi	r16, 0x01	; 1
    100c:	11 09       	sbc	r17, r1
    100e:	f8 01       	movw	r30, r16
    1010:	ee 0f       	add	r30, r30
    1012:	ff 1f       	adc	r31, r31
    1014:	ee 0f       	add	r30, r30
    1016:	ff 1f       	adc	r31, r31
    1018:	e6 0d       	add	r30, r6
    101a:	f7 1d       	adc	r31, r7
    101c:	20 81       	ld	r18, Z
    101e:	31 81       	ldd	r19, Z+1	; 0x01
    1020:	42 81       	ldd	r20, Z+2	; 0x02
    1022:	53 81       	ldd	r21, Z+3	; 0x03
    1024:	60 e0       	ldi	r22, 0x00	; 0
    1026:	70 e0       	ldi	r23, 0x00	; 0
    1028:	80 e4       	ldi	r24, 0x40	; 64
    102a:	90 e4       	ldi	r25, 0x40	; 64
    102c:	0e 94 9d 11 	call	0x233a	; 0x233a <__divsf3>
    1030:	6f 8b       	std	Y+23, r22	; 0x17
    1032:	78 8f       	std	Y+24, r23	; 0x18
    1034:	89 8f       	std	Y+25, r24	; 0x19
    1036:	9a 8f       	std	Y+26, r25	; 0x1a
    1038:	f1 01       	movw	r30, r2
    103a:	e0 0f       	add	r30, r16
    103c:	f1 1f       	adc	r31, r17
    103e:	ee 0f       	add	r30, r30
    1040:	ff 1f       	adc	r31, r31
    1042:	ea 0d       	add	r30, r10
    1044:	fb 1d       	adc	r31, r11
    1046:	60 81       	ld	r22, Z
    1048:	71 81       	ldd	r23, Z+1	; 0x01
    104a:	07 2e       	mov	r0, r23
    104c:	00 0c       	add	r0, r0
    104e:	88 0b       	sbc	r24, r24
    1050:	99 0b       	sbc	r25, r25
    1052:	0e 94 47 12 	call	0x248e	; 0x248e <__floatsisf>
    1056:	9b 01       	movw	r18, r22
    1058:	ac 01       	movw	r20, r24
    105a:	6b 85       	ldd	r22, Y+11	; 0x0b
    105c:	7c 85       	ldd	r23, Y+12	; 0x0c
    105e:	8d 85       	ldd	r24, Y+13	; 0x0d
    1060:	9e 85       	ldd	r25, Y+14	; 0x0e
    1062:	0e 94 99 10 	call	0x2132	; 0x2132 <__subsf3>
    1066:	9b 01       	movw	r18, r22
    1068:	ac 01       	movw	r20, r24
    106a:	6f 89       	ldd	r22, Y+23	; 0x17
    106c:	78 8d       	ldd	r23, Y+24	; 0x18
    106e:	89 8d       	ldd	r24, Y+25	; 0x19
    1070:	9a 8d       	ldd	r25, Y+26	; 0x1a
    1072:	0e 94 4a 14 	call	0x2894	; 0x2894 <__mulsf3>
    1076:	9b 01       	movw	r18, r22
    1078:	ac 01       	movw	r20, r24
    107a:	6f 85       	ldd	r22, Y+15	; 0x0f
    107c:	78 89       	ldd	r23, Y+16	; 0x10
    107e:	89 89       	ldd	r24, Y+17	; 0x11
    1080:	9a 89       	ldd	r25, Y+18	; 0x12
    1082:	0e 94 99 10 	call	0x2132	; 0x2132 <__subsf3>

		h[rows[Row]->total - 1] = range - fmodf(fabs(rows[Row]->angles[rows[Row]->total - 1] - rows[Row]->angles[0]), range);

		// Apskaièiuojame alpha reikðmes, átraukdami paskutinës ir pirmos reikðmës skirtumà
		for (int i = 1; i < rows[Row]->total - 1; i++) {
			alpha[i] = (3.0f / h[i]) * ((float)rows[Row]->data[i + 1 + rows[Row]->start] - (float)rows[Row]->data[i + rows[Row]->start])
    1086:	eb 8d       	ldd	r30, Y+27	; 0x1b
    1088:	fc 8d       	ldd	r31, Y+28	; 0x1c
    108a:	ee 0d       	add	r30, r14
    108c:	ff 1d       	adc	r31, r15
    108e:	60 83       	st	Z, r22
    1090:	71 83       	std	Z+1, r23	; 0x01
    1092:	82 83       	std	Z+2, r24	; 0x02
    1094:	93 83       	std	Z+3, r25	; 0x03
			range = 90.0;

		h[rows[Row]->total - 1] = range - fmodf(fabs(rows[Row]->angles[rows[Row]->total - 1] - rows[Row]->angles[0]), range);

		// Apskaièiuojame alpha reikðmes, átraukdami paskutinës ir pirmos reikðmës skirtumà
		for (int i = 1; i < rows[Row]->total - 1; i++) {
    1096:	64 01       	movw	r12, r8
    1098:	d2 01       	movw	r26, r4
    109a:	11 96       	adiw	r26, 0x01	; 1
    109c:	0c 91       	ld	r16, X
    109e:	10 e0       	ldi	r17, 0x00	; 0
    10a0:	78 01       	movw	r14, r16
    10a2:	b1 e0       	ldi	r27, 0x01	; 1
    10a4:	eb 1a       	sub	r14, r27
    10a6:	f1 08       	sbc	r15, r1
    10a8:	ce 14       	cp	r12, r14
    10aa:	df 04       	cpc	r13, r15
    10ac:	0c f4       	brge	.+2      	; 0x10b0 <azel+0x3d6>
    10ae:	50 cf       	rjmp	.-352    	; 0xf50 <azel+0x276>
			alpha[i] = (3.0f / h[i]) * ((float)rows[Row]->data[i + 1 + rows[Row]->start] - (float)rows[Row]->data[i + rows[Row]->start])
			- (3.0f / h[i - 1]) * ((float)rows[Row]->data[i + rows[Row]->start] - (float)rows[Row]->data[i - 1 + rows[Row]->start]);
		}
		
		// Papildoma alpha reikðmë tarp paskutinës ir pirmos reikðmës
		alpha[rows[Row]->total - 1] = (3.0f / h[rows[Row]->total - 1]) *
    10b0:	67 01       	movw	r12, r14
    10b2:	cc 0c       	add	r12, r12
    10b4:	dd 1c       	adc	r13, r13
    10b6:	cc 0c       	add	r12, r12
    10b8:	dd 1c       	adc	r13, r13
    10ba:	ef a1       	ldd	r30, Y+39	; 0x27
    10bc:	f8 a5       	ldd	r31, Y+40	; 0x28
    10be:	ec 0d       	add	r30, r12
    10c0:	fd 1d       	adc	r31, r13
    10c2:	20 81       	ld	r18, Z
    10c4:	31 81       	ldd	r19, Z+1	; 0x01
    10c6:	42 81       	ldd	r20, Z+2	; 0x02
    10c8:	53 81       	ldd	r21, Z+3	; 0x03
    10ca:	60 e0       	ldi	r22, 0x00	; 0
    10cc:	70 e0       	ldi	r23, 0x00	; 0
    10ce:	80 e4       	ldi	r24, 0x40	; 64
    10d0:	90 e4       	ldi	r25, 0x40	; 64
    10d2:	0e 94 9d 11 	call	0x233a	; 0x233a <__divsf3>
    10d6:	6f 8b       	std	Y+23, r22	; 0x17
    10d8:	78 8f       	std	Y+24, r23	; 0x18
    10da:	89 8f       	std	Y+25, r24	; 0x19
    10dc:	9a 8f       	std	Y+26, r25	; 0x1a
		((float)rows[Row]->data[rows[Row]->start] - (float)rows[Row]->data[rows[Row]->total - 1 + rows[Row]->start])
    10de:	f2 01       	movw	r30, r4
    10e0:	a4 80       	ldd	r10, Z+4	; 0x04
    10e2:	b5 80       	ldd	r11, Z+5	; 0x05
    10e4:	20 80       	ld	r2, Z
    10e6:	31 2c       	mov	r3, r1
    10e8:	f1 01       	movw	r30, r2
    10ea:	ee 0f       	add	r30, r30
    10ec:	ff 1f       	adc	r31, r31
    10ee:	ea 0d       	add	r30, r10
    10f0:	fb 1d       	adc	r31, r11
    10f2:	60 81       	ld	r22, Z
    10f4:	71 81       	ldd	r23, Z+1	; 0x01
    10f6:	07 2e       	mov	r0, r23
    10f8:	00 0c       	add	r0, r0
    10fa:	88 0b       	sbc	r24, r24
    10fc:	99 0b       	sbc	r25, r25
    10fe:	0e 94 47 12 	call	0x248e	; 0x248e <__floatsisf>
    1102:	6f 87       	std	Y+15, r22	; 0x0f
    1104:	78 8b       	std	Y+16, r23	; 0x10
    1106:	89 8b       	std	Y+17, r24	; 0x11
    1108:	9a 8b       	std	Y+18, r25	; 0x12
    110a:	f7 01       	movw	r30, r14
    110c:	e2 0d       	add	r30, r2
    110e:	f3 1d       	adc	r31, r3
    1110:	ee 0f       	add	r30, r30
    1112:	ff 1f       	adc	r31, r31
    1114:	ea 0d       	add	r30, r10
    1116:	fb 1d       	adc	r31, r11
    1118:	60 81       	ld	r22, Z
    111a:	71 81       	ldd	r23, Z+1	; 0x01
    111c:	07 2e       	mov	r0, r23
    111e:	00 0c       	add	r0, r0
    1120:	88 0b       	sbc	r24, r24
    1122:	99 0b       	sbc	r25, r25
    1124:	0e 94 47 12 	call	0x248e	; 0x248e <__floatsisf>
    1128:	6b 87       	std	Y+11, r22	; 0x0b
    112a:	7c 87       	std	Y+12, r23	; 0x0c
    112c:	8d 87       	std	Y+13, r24	; 0x0d
    112e:	9e 87       	std	Y+14, r25	; 0x0e
    1130:	9b 01       	movw	r18, r22
    1132:	ac 01       	movw	r20, r24
    1134:	6f 85       	ldd	r22, Y+15	; 0x0f
    1136:	78 89       	ldd	r23, Y+16	; 0x10
    1138:	89 89       	ldd	r24, Y+17	; 0x11
    113a:	9a 89       	ldd	r25, Y+18	; 0x12
    113c:	0e 94 99 10 	call	0x2132	; 0x2132 <__subsf3>
    1140:	9b 01       	movw	r18, r22
    1142:	ac 01       	movw	r20, r24
			alpha[i] = (3.0f / h[i]) * ((float)rows[Row]->data[i + 1 + rows[Row]->start] - (float)rows[Row]->data[i + rows[Row]->start])
			- (3.0f / h[i - 1]) * ((float)rows[Row]->data[i + rows[Row]->start] - (float)rows[Row]->data[i - 1 + rows[Row]->start]);
		}
		
		// Papildoma alpha reikðmë tarp paskutinës ir pirmos reikðmës
		alpha[rows[Row]->total - 1] = (3.0f / h[rows[Row]->total - 1]) *
    1144:	6f 89       	ldd	r22, Y+23	; 0x17
    1146:	78 8d       	ldd	r23, Y+24	; 0x18
    1148:	89 8d       	ldd	r24, Y+25	; 0x19
    114a:	9a 8d       	ldd	r25, Y+26	; 0x1a
    114c:	0e 94 4a 14 	call	0x2894	; 0x2894 <__mulsf3>
    1150:	6f 87       	std	Y+15, r22	; 0x0f
    1152:	78 8b       	std	Y+16, r23	; 0x10
    1154:	89 8b       	std	Y+17, r24	; 0x11
    1156:	9a 8b       	std	Y+18, r25	; 0x12
		((float)rows[Row]->data[rows[Row]->start] - (float)rows[Row]->data[rows[Row]->total - 1 + rows[Row]->start])
		- (3.0f / h[rows[Row]->total - 2]) * ((float)rows[Row]->data[rows[Row]->total - 1 + rows[Row]->start] - (float)rows[Row]->data[rows[Row]->total - 2 + rows[Row]->start]);
    1158:	02 50       	subi	r16, 0x02	; 2
    115a:	11 09       	sbc	r17, r1
    115c:	f8 01       	movw	r30, r16
    115e:	ee 0f       	add	r30, r30
    1160:	ff 1f       	adc	r31, r31
    1162:	ee 0f       	add	r30, r30
    1164:	ff 1f       	adc	r31, r31
    1166:	2f a1       	ldd	r18, Y+39	; 0x27
    1168:	38 a5       	ldd	r19, Y+40	; 0x28
    116a:	e2 0f       	add	r30, r18
    116c:	f3 1f       	adc	r31, r19
    116e:	20 81       	ld	r18, Z
    1170:	31 81       	ldd	r19, Z+1	; 0x01
    1172:	42 81       	ldd	r20, Z+2	; 0x02
    1174:	53 81       	ldd	r21, Z+3	; 0x03
    1176:	60 e0       	ldi	r22, 0x00	; 0
    1178:	70 e0       	ldi	r23, 0x00	; 0
    117a:	80 e4       	ldi	r24, 0x40	; 64
    117c:	90 e4       	ldi	r25, 0x40	; 64
    117e:	0e 94 9d 11 	call	0x233a	; 0x233a <__divsf3>
    1182:	6f 8b       	std	Y+23, r22	; 0x17
    1184:	78 8f       	std	Y+24, r23	; 0x18
    1186:	89 8f       	std	Y+25, r24	; 0x19
    1188:	9a 8f       	std	Y+26, r25	; 0x1a
    118a:	02 0d       	add	r16, r2
    118c:	13 1d       	adc	r17, r3
    118e:	f8 01       	movw	r30, r16
    1190:	ee 0f       	add	r30, r30
    1192:	ff 1f       	adc	r31, r31
    1194:	ea 0d       	add	r30, r10
    1196:	fb 1d       	adc	r31, r11
    1198:	60 81       	ld	r22, Z
    119a:	71 81       	ldd	r23, Z+1	; 0x01
    119c:	07 2e       	mov	r0, r23
    119e:	00 0c       	add	r0, r0
    11a0:	88 0b       	sbc	r24, r24
    11a2:	99 0b       	sbc	r25, r25
    11a4:	0e 94 47 12 	call	0x248e	; 0x248e <__floatsisf>
    11a8:	9b 01       	movw	r18, r22
    11aa:	ac 01       	movw	r20, r24
    11ac:	6b 85       	ldd	r22, Y+11	; 0x0b
    11ae:	7c 85       	ldd	r23, Y+12	; 0x0c
    11b0:	8d 85       	ldd	r24, Y+13	; 0x0d
    11b2:	9e 85       	ldd	r25, Y+14	; 0x0e
    11b4:	0e 94 99 10 	call	0x2132	; 0x2132 <__subsf3>
    11b8:	9b 01       	movw	r18, r22
    11ba:	ac 01       	movw	r20, r24
    11bc:	6f 89       	ldd	r22, Y+23	; 0x17
    11be:	78 8d       	ldd	r23, Y+24	; 0x18
    11c0:	89 8d       	ldd	r24, Y+25	; 0x19
    11c2:	9a 8d       	ldd	r25, Y+26	; 0x1a
    11c4:	0e 94 4a 14 	call	0x2894	; 0x2894 <__mulsf3>
    11c8:	9b 01       	movw	r18, r22
    11ca:	ac 01       	movw	r20, r24
    11cc:	6f 85       	ldd	r22, Y+15	; 0x0f
    11ce:	78 89       	ldd	r23, Y+16	; 0x10
    11d0:	89 89       	ldd	r24, Y+17	; 0x11
    11d2:	9a 89       	ldd	r25, Y+18	; 0x12
    11d4:	0e 94 99 10 	call	0x2132	; 0x2132 <__subsf3>
			alpha[i] = (3.0f / h[i]) * ((float)rows[Row]->data[i + 1 + rows[Row]->start] - (float)rows[Row]->data[i + rows[Row]->start])
			- (3.0f / h[i - 1]) * ((float)rows[Row]->data[i + rows[Row]->start] - (float)rows[Row]->data[i - 1 + rows[Row]->start]);
		}
		
		// Papildoma alpha reikðmë tarp paskutinës ir pirmos reikðmës
		alpha[rows[Row]->total - 1] = (3.0f / h[rows[Row]->total - 1]) *
    11d8:	ee a9       	ldd	r30, Y+54	; 0x36
    11da:	ff a9       	ldd	r31, Y+55	; 0x37
    11dc:	ec 0d       	add	r30, r12
    11de:	fd 1d       	adc	r31, r13
    11e0:	60 83       	st	Z, r22
    11e2:	71 83       	std	Z+1, r23	; 0x01
    11e4:	82 83       	std	Z+2, r24	; 0x02
    11e6:	93 83       	std	Z+3, r25	; 0x03
		((float)rows[Row]->data[rows[Row]->start] - (float)rows[Row]->data[rows[Row]->total - 1 + rows[Row]->start])
		- (3.0f / h[rows[Row]->total - 2]) * ((float)rows[Row]->data[rows[Row]->total - 1 + rows[Row]->start] - (float)rows[Row]->data[rows[Row]->total - 2 + rows[Row]->start]);

		// Inicializuojame l, mu, z reikðmes
		l[0] = 1.0f;
    11e8:	80 e0       	ldi	r24, 0x00	; 0
    11ea:	90 e0       	ldi	r25, 0x00	; 0
    11ec:	a0 e8       	ldi	r26, 0x80	; 128
    11ee:	bf e3       	ldi	r27, 0x3F	; 63
    11f0:	e9 a5       	ldd	r30, Y+41	; 0x29
    11f2:	fa a5       	ldd	r31, Y+42	; 0x2a
    11f4:	80 83       	st	Z, r24
    11f6:	91 83       	std	Z+1, r25	; 0x01
    11f8:	a2 83       	std	Z+2, r26	; 0x02
    11fa:	b3 83       	std	Z+3, r27	; 0x03
		mu[0] = 0.0f;
    11fc:	a8 ad       	ldd	r26, Y+56	; 0x38
    11fe:	b9 ad       	ldd	r27, Y+57	; 0x39
    1200:	1d 92       	st	X+, r1
    1202:	1d 92       	st	X+, r1
    1204:	1d 92       	st	X+, r1
    1206:	1c 92       	st	X, r1
    1208:	13 97       	sbiw	r26, 0x03	; 3
		z[0] = 0.0f;
    120a:	eb a5       	ldd	r30, Y+43	; 0x2b
    120c:	fc a5       	ldd	r31, Y+44	; 0x2c
    120e:	10 82       	st	Z, r1
    1210:	11 82       	std	Z+1, r1	; 0x01
    1212:	12 82       	std	Z+2, r1	; 0x02
    1214:	13 82       	std	Z+3, r1	; 0x03

		// Apskaièiuojame l, mu, z reikðmes iteratyviai
		for (int i = 1; i < rows[Row]->total - 1; i++) {
    1216:	01 e0       	ldi	r16, 0x01	; 1
    1218:	10 e0       	ldi	r17, 0x00	; 0
    121a:	2f 8c       	ldd	r2, Y+31	; 0x1f
    121c:	38 a0       	ldd	r3, Y+32	; 0x20
    121e:	9e c0       	rjmp	.+316    	; 0x135c <azel+0x682>
			l[i] = 2.0f * (rows[Row]->angles[i + 1] - rows[Row]->angles[i - 1]) - h[i - 1] * mu[i - 1];
    1220:	d2 01       	movw	r26, r4
    1222:	12 96       	adiw	r26, 0x02	; 2
    1224:	2d 91       	ld	r18, X+
    1226:	3c 91       	ld	r19, X
    1228:	13 97       	sbiw	r26, 0x03	; 3
    122a:	48 01       	movw	r8, r16
    122c:	bf ef       	ldi	r27, 0xFF	; 255
    122e:	8b 1a       	sub	r8, r27
    1230:	9b 0a       	sbc	r9, r27
    1232:	f4 01       	movw	r30, r8
    1234:	ee 0f       	add	r30, r30
    1236:	ff 1f       	adc	r31, r31
    1238:	ee 0f       	add	r30, r30
    123a:	ff 1f       	adc	r31, r31
    123c:	e2 0f       	add	r30, r18
    123e:	f3 1f       	adc	r31, r19
    1240:	60 81       	ld	r22, Z
    1242:	71 81       	ldd	r23, Z+1	; 0x01
    1244:	82 81       	ldd	r24, Z+2	; 0x02
    1246:	93 81       	ldd	r25, Z+3	; 0x03
    1248:	f8 01       	movw	r30, r16
    124a:	e1 50       	subi	r30, 0x01	; 1
    124c:	f0 4c       	sbci	r31, 0xC0	; 192
    124e:	ee 0f       	add	r30, r30
    1250:	ff 1f       	adc	r31, r31
    1252:	ee 0f       	add	r30, r30
    1254:	ff 1f       	adc	r31, r31
    1256:	e2 0f       	add	r30, r18
    1258:	f3 1f       	adc	r31, r19
    125a:	20 81       	ld	r18, Z
    125c:	31 81       	ldd	r19, Z+1	; 0x01
    125e:	42 81       	ldd	r20, Z+2	; 0x02
    1260:	53 81       	ldd	r21, Z+3	; 0x03
    1262:	0e 94 99 10 	call	0x2132	; 0x2132 <__subsf3>
    1266:	9b 01       	movw	r18, r22
    1268:	ac 01       	movw	r20, r24
    126a:	0e 94 9a 10 	call	0x2134	; 0x2134 <__addsf3>
    126e:	6b 87       	std	Y+11, r22	; 0x0b
    1270:	7c 87       	std	Y+12, r23	; 0x0c
    1272:	8d 87       	std	Y+13, r24	; 0x0d
    1274:	9e 87       	std	Y+14, r25	; 0x0e
    1276:	78 01       	movw	r14, r16
    1278:	e1 e0       	ldi	r30, 0x01	; 1
    127a:	ee 1a       	sub	r14, r30
    127c:	f1 08       	sbc	r15, r1
    127e:	ee 0c       	add	r14, r14
    1280:	ff 1c       	adc	r15, r15
    1282:	ee 0c       	add	r14, r14
    1284:	ff 1c       	adc	r15, r15
    1286:	63 01       	movw	r12, r6
    1288:	ce 0c       	add	r12, r14
    128a:	df 1c       	adc	r13, r15
    128c:	d6 01       	movw	r26, r12
    128e:	6d 91       	ld	r22, X+
    1290:	7d 91       	ld	r23, X+
    1292:	8d 91       	ld	r24, X+
    1294:	9c 91       	ld	r25, X
    1296:	eb 89       	ldd	r30, Y+19	; 0x13
    1298:	fc 89       	ldd	r31, Y+20	; 0x14
    129a:	ee 0d       	add	r30, r14
    129c:	ff 1d       	adc	r31, r15
    129e:	20 81       	ld	r18, Z
    12a0:	31 81       	ldd	r19, Z+1	; 0x01
    12a2:	42 81       	ldd	r20, Z+2	; 0x02
    12a4:	53 81       	ldd	r21, Z+3	; 0x03
    12a6:	0e 94 4a 14 	call	0x2894	; 0x2894 <__mulsf3>
    12aa:	9b 01       	movw	r18, r22
    12ac:	ac 01       	movw	r20, r24
    12ae:	6b 85       	ldd	r22, Y+11	; 0x0b
    12b0:	7c 85       	ldd	r23, Y+12	; 0x0c
    12b2:	8d 85       	ldd	r24, Y+13	; 0x0d
    12b4:	9e 85       	ldd	r25, Y+14	; 0x0e
    12b6:	0e 94 99 10 	call	0x2132	; 0x2132 <__subsf3>
    12ba:	9b 01       	movw	r18, r22
    12bc:	ac 01       	movw	r20, r24
    12be:	00 0f       	add	r16, r16
    12c0:	11 1f       	adc	r17, r17
    12c2:	00 0f       	add	r16, r16
    12c4:	11 1f       	adc	r17, r17
    12c6:	a9 a0       	ldd	r10, Y+33	; 0x21
    12c8:	ba a0       	ldd	r11, Y+34	; 0x22
    12ca:	a0 0e       	add	r10, r16
    12cc:	b1 1e       	adc	r11, r17
    12ce:	f5 01       	movw	r30, r10
    12d0:	60 83       	st	Z, r22
    12d2:	71 83       	std	Z+1, r23	; 0x01
    12d4:	82 83       	std	Z+2, r24	; 0x02
    12d6:	93 83       	std	Z+3, r25	; 0x03
			mu[i] = h[i] / l[i];
    12d8:	f3 01       	movw	r30, r6
    12da:	e0 0f       	add	r30, r16
    12dc:	f1 1f       	adc	r31, r17
    12de:	60 81       	ld	r22, Z
    12e0:	71 81       	ldd	r23, Z+1	; 0x01
    12e2:	82 81       	ldd	r24, Z+2	; 0x02
    12e4:	93 81       	ldd	r25, Z+3	; 0x03
    12e6:	0e 94 9d 11 	call	0x233a	; 0x233a <__divsf3>
    12ea:	eb 89       	ldd	r30, Y+19	; 0x13
    12ec:	fc 89       	ldd	r31, Y+20	; 0x14
    12ee:	e0 0f       	add	r30, r16
    12f0:	f1 1f       	adc	r31, r17
    12f2:	60 83       	st	Z, r22
    12f4:	71 83       	std	Z+1, r23	; 0x01
    12f6:	82 83       	std	Z+2, r24	; 0x02
    12f8:	93 83       	std	Z+3, r25	; 0x03
			z[i] = (alpha[i] - h[i - 1] * z[i - 1]) / l[i];
    12fa:	eb 8d       	ldd	r30, Y+27	; 0x1b
    12fc:	fc 8d       	ldd	r31, Y+28	; 0x1c
    12fe:	e0 0f       	add	r30, r16
    1300:	f1 1f       	adc	r31, r17
    1302:	20 81       	ld	r18, Z
    1304:	31 81       	ldd	r19, Z+1	; 0x01
    1306:	42 81       	ldd	r20, Z+2	; 0x02
    1308:	53 81       	ldd	r21, Z+3	; 0x03
    130a:	2b 87       	std	Y+11, r18	; 0x0b
    130c:	3c 87       	std	Y+12, r19	; 0x0c
    130e:	4d 87       	std	Y+13, r20	; 0x0d
    1310:	5e 87       	std	Y+14, r21	; 0x0e
    1312:	d6 01       	movw	r26, r12
    1314:	6d 91       	ld	r22, X+
    1316:	7d 91       	ld	r23, X+
    1318:	8d 91       	ld	r24, X+
    131a:	9c 91       	ld	r25, X
    131c:	f1 01       	movw	r30, r2
    131e:	ee 0d       	add	r30, r14
    1320:	ff 1d       	adc	r31, r15
    1322:	20 81       	ld	r18, Z
    1324:	31 81       	ldd	r19, Z+1	; 0x01
    1326:	42 81       	ldd	r20, Z+2	; 0x02
    1328:	53 81       	ldd	r21, Z+3	; 0x03
    132a:	0e 94 4a 14 	call	0x2894	; 0x2894 <__mulsf3>
    132e:	9b 01       	movw	r18, r22
    1330:	ac 01       	movw	r20, r24
    1332:	6b 85       	ldd	r22, Y+11	; 0x0b
    1334:	7c 85       	ldd	r23, Y+12	; 0x0c
    1336:	8d 85       	ldd	r24, Y+13	; 0x0d
    1338:	9e 85       	ldd	r25, Y+14	; 0x0e
    133a:	0e 94 99 10 	call	0x2132	; 0x2132 <__subsf3>
    133e:	f5 01       	movw	r30, r10
    1340:	20 81       	ld	r18, Z
    1342:	31 81       	ldd	r19, Z+1	; 0x01
    1344:	42 81       	ldd	r20, Z+2	; 0x02
    1346:	53 81       	ldd	r21, Z+3	; 0x03
    1348:	0e 94 9d 11 	call	0x233a	; 0x233a <__divsf3>
    134c:	f1 01       	movw	r30, r2
    134e:	e0 0f       	add	r30, r16
    1350:	f1 1f       	adc	r31, r17
    1352:	60 83       	st	Z, r22
    1354:	71 83       	std	Z+1, r23	; 0x01
    1356:	82 83       	std	Z+2, r24	; 0x02
    1358:	93 83       	std	Z+3, r25	; 0x03
		l[0] = 1.0f;
		mu[0] = 0.0f;
		z[0] = 0.0f;

		// Apskaièiuojame l, mu, z reikðmes iteratyviai
		for (int i = 1; i < rows[Row]->total - 1; i++) {
    135a:	84 01       	movw	r16, r8
    135c:	d2 01       	movw	r26, r4
    135e:	11 96       	adiw	r26, 0x01	; 1
    1360:	8c 91       	ld	r24, X
    1362:	e8 2e       	mov	r14, r24
    1364:	f1 2c       	mov	r15, r1
    1366:	67 01       	movw	r12, r14
    1368:	b1 e0       	ldi	r27, 0x01	; 1
    136a:	cb 1a       	sub	r12, r27
    136c:	d1 08       	sbc	r13, r1
    136e:	0c 15       	cp	r16, r12
    1370:	1d 05       	cpc	r17, r13
    1372:	0c f4       	brge	.+2      	; 0x1376 <azel+0x69c>
    1374:	55 cf       	rjmp	.-342    	; 0x1220 <azel+0x546>
			mu[i] = h[i] / l[i];
			z[i] = (alpha[i] - h[i - 1] * z[i - 1]) / l[i];
		}

		// Uþdarome ratà su paskutinës ir pirmos reikðmës perëjimu
		l[rows[Row]->total - 1] = 2.0f * (range - rows[Row]->angles[rows[Row]->total - 2]) - h[rows[Row]->total - 2] * mu[rows[Row]->total - 2];
    1376:	d2 01       	movw	r26, r4
    1378:	12 96       	adiw	r26, 0x02	; 2
    137a:	ed 91       	ld	r30, X+
    137c:	fc 91       	ld	r31, X
    137e:	13 97       	sbiw	r26, 0x03	; 3
    1380:	c7 01       	movw	r24, r14
    1382:	82 50       	subi	r24, 0x02	; 2
    1384:	90 4c       	sbci	r25, 0xC0	; 192
    1386:	88 0f       	add	r24, r24
    1388:	99 1f       	adc	r25, r25
    138a:	88 0f       	add	r24, r24
    138c:	99 1f       	adc	r25, r25
    138e:	e8 0f       	add	r30, r24
    1390:	f9 1f       	adc	r31, r25
    1392:	20 81       	ld	r18, Z
    1394:	31 81       	ldd	r19, Z+1	; 0x01
    1396:	42 81       	ldd	r20, Z+2	; 0x02
    1398:	53 81       	ldd	r21, Z+3	; 0x03
    139a:	6b a1       	ldd	r22, Y+35	; 0x23
    139c:	7c a1       	ldd	r23, Y+36	; 0x24
    139e:	8d a1       	ldd	r24, Y+37	; 0x25
    13a0:	9e a1       	ldd	r25, Y+38	; 0x26
    13a2:	0e 94 99 10 	call	0x2132	; 0x2132 <__subsf3>
    13a6:	9b 01       	movw	r18, r22
    13a8:	ac 01       	movw	r20, r24
    13aa:	0e 94 9a 10 	call	0x2134	; 0x2134 <__addsf3>
    13ae:	4b 01       	movw	r8, r22
    13b0:	5c 01       	movw	r10, r24
    13b2:	b2 e0       	ldi	r27, 0x02	; 2
    13b4:	eb 1a       	sub	r14, r27
    13b6:	f1 08       	sbc	r15, r1
    13b8:	ee 0c       	add	r14, r14
    13ba:	ff 1c       	adc	r15, r15
    13bc:	ee 0c       	add	r14, r14
    13be:	ff 1c       	adc	r15, r15
    13c0:	ef a1       	ldd	r30, Y+39	; 0x27
    13c2:	f8 a5       	ldd	r31, Y+40	; 0x28
    13c4:	ee 0d       	add	r30, r14
    13c6:	ff 1d       	adc	r31, r15
    13c8:	60 81       	ld	r22, Z
    13ca:	71 81       	ldd	r23, Z+1	; 0x01
    13cc:	82 81       	ldd	r24, Z+2	; 0x02
    13ce:	93 81       	ldd	r25, Z+3	; 0x03
    13d0:	e8 ad       	ldd	r30, Y+56	; 0x38
    13d2:	f9 ad       	ldd	r31, Y+57	; 0x39
    13d4:	ee 0d       	add	r30, r14
    13d6:	ff 1d       	adc	r31, r15
    13d8:	20 81       	ld	r18, Z
    13da:	31 81       	ldd	r19, Z+1	; 0x01
    13dc:	42 81       	ldd	r20, Z+2	; 0x02
    13de:	53 81       	ldd	r21, Z+3	; 0x03
    13e0:	0e 94 4a 14 	call	0x2894	; 0x2894 <__mulsf3>
    13e4:	9b 01       	movw	r18, r22
    13e6:	ac 01       	movw	r20, r24
    13e8:	c5 01       	movw	r24, r10
    13ea:	b4 01       	movw	r22, r8
    13ec:	0e 94 99 10 	call	0x2132	; 0x2132 <__subsf3>
    13f0:	cc 0c       	add	r12, r12
    13f2:	dd 1c       	adc	r13, r13
    13f4:	cc 0c       	add	r12, r12
    13f6:	dd 1c       	adc	r13, r13
    13f8:	e9 a5       	ldd	r30, Y+41	; 0x29
    13fa:	fa a5       	ldd	r31, Y+42	; 0x2a
    13fc:	ec 0d       	add	r30, r12
    13fe:	fd 1d       	adc	r31, r13
    1400:	60 83       	st	Z, r22
    1402:	71 83       	std	Z+1, r23	; 0x01
    1404:	82 83       	std	Z+2, r24	; 0x02
    1406:	93 83       	std	Z+3, r25	; 0x03
		z[rows[Row]->total - 1] = (alpha[rows[Row]->total - 1] - h[rows[Row]->total - 2] * z[rows[Row]->total - 2]) / l[rows[Row]->total - 1];
    1408:	f2 01       	movw	r30, r4
    140a:	81 81       	ldd	r24, Z+1	; 0x01
    140c:	90 e0       	ldi	r25, 0x00	; 0
    140e:	8c 01       	movw	r16, r24
    1410:	01 50       	subi	r16, 0x01	; 1
    1412:	11 09       	sbc	r17, r1
    1414:	00 0f       	add	r16, r16
    1416:	11 1f       	adc	r17, r17
    1418:	00 0f       	add	r16, r16
    141a:	11 1f       	adc	r17, r17
    141c:	ee a9       	ldd	r30, Y+54	; 0x36
    141e:	ff a9       	ldd	r31, Y+55	; 0x37
    1420:	e0 0f       	add	r30, r16
    1422:	f1 1f       	adc	r31, r17
    1424:	c0 80       	ld	r12, Z
    1426:	d1 80       	ldd	r13, Z+1	; 0x01
    1428:	e2 80       	ldd	r14, Z+2	; 0x02
    142a:	f3 80       	ldd	r15, Z+3	; 0x03
    142c:	02 97       	sbiw	r24, 0x02	; 2
    142e:	9c 01       	movw	r18, r24
    1430:	22 0f       	add	r18, r18
    1432:	33 1f       	adc	r19, r19
    1434:	22 0f       	add	r18, r18
    1436:	33 1f       	adc	r19, r19
    1438:	ef a1       	ldd	r30, Y+39	; 0x27
    143a:	f8 a5       	ldd	r31, Y+40	; 0x28
    143c:	e2 0f       	add	r30, r18
    143e:	f3 1f       	adc	r31, r19
    1440:	60 81       	ld	r22, Z
    1442:	71 81       	ldd	r23, Z+1	; 0x01
    1444:	82 81       	ldd	r24, Z+2	; 0x02
    1446:	93 81       	ldd	r25, Z+3	; 0x03
    1448:	eb a5       	ldd	r30, Y+43	; 0x2b
    144a:	fc a5       	ldd	r31, Y+44	; 0x2c
    144c:	e2 0f       	add	r30, r18
    144e:	f3 1f       	adc	r31, r19
    1450:	20 81       	ld	r18, Z
    1452:	31 81       	ldd	r19, Z+1	; 0x01
    1454:	42 81       	ldd	r20, Z+2	; 0x02
    1456:	53 81       	ldd	r21, Z+3	; 0x03
    1458:	0e 94 4a 14 	call	0x2894	; 0x2894 <__mulsf3>
    145c:	9b 01       	movw	r18, r22
    145e:	ac 01       	movw	r20, r24
    1460:	c7 01       	movw	r24, r14
    1462:	b6 01       	movw	r22, r12
    1464:	0e 94 99 10 	call	0x2132	; 0x2132 <__subsf3>
    1468:	e9 a5       	ldd	r30, Y+41	; 0x29
    146a:	fa a5       	ldd	r31, Y+42	; 0x2a
    146c:	e0 0f       	add	r30, r16
    146e:	f1 1f       	adc	r31, r17
    1470:	20 81       	ld	r18, Z
    1472:	31 81       	ldd	r19, Z+1	; 0x01
    1474:	42 81       	ldd	r20, Z+2	; 0x02
    1476:	53 81       	ldd	r21, Z+3	; 0x03
    1478:	0e 94 9d 11 	call	0x233a	; 0x233a <__divsf3>
    147c:	eb a5       	ldd	r30, Y+43	; 0x2b
    147e:	fc a5       	ldd	r31, Y+44	; 0x2c
    1480:	e0 0f       	add	r30, r16
    1482:	f1 1f       	adc	r31, r17
    1484:	60 83       	st	Z, r22
    1486:	71 83       	std	Z+1, r23	; 0x01
    1488:	82 83       	std	Z+2, r24	; 0x02
    148a:	93 83       	std	Z+3, r25	; 0x03

		l[rows[Row]->total] = 1.0f;
    148c:	d2 01       	movw	r26, r4
    148e:	11 96       	adiw	r26, 0x01	; 1
    1490:	ec 91       	ld	r30, X
    1492:	f0 e0       	ldi	r31, 0x00	; 0
    1494:	ee 0f       	add	r30, r30
    1496:	ff 1f       	adc	r31, r31
    1498:	ee 0f       	add	r30, r30
    149a:	ff 1f       	adc	r31, r31
    149c:	29 a5       	ldd	r18, Y+41	; 0x29
    149e:	3a a5       	ldd	r19, Y+42	; 0x2a
    14a0:	e2 0f       	add	r30, r18
    14a2:	f3 1f       	adc	r31, r19
    14a4:	80 e0       	ldi	r24, 0x00	; 0
    14a6:	90 e0       	ldi	r25, 0x00	; 0
    14a8:	a0 e8       	ldi	r26, 0x80	; 128
    14aa:	bf e3       	ldi	r27, 0x3F	; 63
    14ac:	80 83       	st	Z, r24
    14ae:	91 83       	std	Z+1, r25	; 0x01
    14b0:	a2 83       	std	Z+2, r26	; 0x02
    14b2:	b3 83       	std	Z+3, r27	; 0x03
		z[rows[Row]->total] = 0.0f;
    14b4:	d2 01       	movw	r26, r4
    14b6:	11 96       	adiw	r26, 0x01	; 1
    14b8:	ec 91       	ld	r30, X
    14ba:	11 97       	sbiw	r26, 0x01	; 1
    14bc:	f0 e0       	ldi	r31, 0x00	; 0
    14be:	ee 0f       	add	r30, r30
    14c0:	ff 1f       	adc	r31, r31
    14c2:	ee 0f       	add	r30, r30
    14c4:	ff 1f       	adc	r31, r31
    14c6:	2b a5       	ldd	r18, Y+43	; 0x2b
    14c8:	3c a5       	ldd	r19, Y+44	; 0x2c
    14ca:	e2 0f       	add	r30, r18
    14cc:	f3 1f       	adc	r31, r19
    14ce:	10 82       	st	Z, r1
    14d0:	11 82       	std	Z+1, r1	; 0x01
    14d2:	12 82       	std	Z+2, r1	; 0x02
    14d4:	13 82       	std	Z+3, r1	; 0x03
		c[rows[Row]->total] = 0.0f;
    14d6:	11 96       	adiw	r26, 0x01	; 1
    14d8:	ec 91       	ld	r30, X
    14da:	11 97       	sbiw	r26, 0x01	; 1
    14dc:	f0 e0       	ldi	r31, 0x00	; 0
    14de:	ee 0f       	add	r30, r30
    14e0:	ff 1f       	adc	r31, r31
    14e2:	ee 0f       	add	r30, r30
    14e4:	ff 1f       	adc	r31, r31
    14e6:	4a ad       	ldd	r20, Y+58	; 0x3a
    14e8:	5b ad       	ldd	r21, Y+59	; 0x3b
    14ea:	e4 0f       	add	r30, r20
    14ec:	f5 1f       	adc	r31, r21
    14ee:	10 82       	st	Z, r1
    14f0:	11 82       	std	Z+1, r1	; 0x01
    14f2:	12 82       	std	Z+2, r1	; 0x02
    14f4:	13 82       	std	Z+3, r1	; 0x03

		// Atgalinës iteracijos bûdu apskaièiuojame c, b, d koeficientus
		for (int j = rows[Row]->total - 1; j >= 0; j--) {
    14f6:	11 96       	adiw	r26, 0x01	; 1
    14f8:	8c 91       	ld	r24, X
    14fa:	90 e0       	ldi	r25, 0x00	; 0
    14fc:	1c 01       	movw	r2, r24
    14fe:	51 e0       	ldi	r21, 0x01	; 1
    1500:	25 1a       	sub	r2, r21
    1502:	31 08       	sbc	r3, r1
    1504:	01 c1       	rjmp	.+514    	; 0x1708 <azel+0xa2e>
			c[j] = z[j] - mu[j] * c[j + 1];
    1506:	51 01       	movw	r10, r2
    1508:	aa 0c       	add	r10, r10
    150a:	bb 1c       	adc	r11, r11
    150c:	aa 0c       	add	r10, r10
    150e:	bb 1c       	adc	r11, r11
    1510:	ef 8d       	ldd	r30, Y+31	; 0x1f
    1512:	f8 a1       	ldd	r31, Y+32	; 0x20
    1514:	ea 0d       	add	r30, r10
    1516:	fb 1d       	adc	r31, r11
    1518:	80 81       	ld	r24, Z
    151a:	91 81       	ldd	r25, Z+1	; 0x01
    151c:	a2 81       	ldd	r26, Z+2	; 0x02
    151e:	b3 81       	ldd	r27, Z+3	; 0x03
    1520:	8b 87       	std	Y+11, r24	; 0x0b
    1522:	9c 87       	std	Y+12, r25	; 0x0c
    1524:	ad 87       	std	Y+13, r26	; 0x0d
    1526:	be 87       	std	Y+14, r27	; 0x0e
    1528:	eb 89       	ldd	r30, Y+19	; 0x13
    152a:	fc 89       	ldd	r31, Y+20	; 0x14
    152c:	ea 0d       	add	r30, r10
    152e:	fb 1d       	adc	r31, r11
    1530:	60 81       	ld	r22, Z
    1532:	71 81       	ldd	r23, Z+1	; 0x01
    1534:	82 81       	ldd	r24, Z+2	; 0x02
    1536:	93 81       	ldd	r25, Z+3	; 0x03
    1538:	61 01       	movw	r12, r2
    153a:	af ef       	ldi	r26, 0xFF	; 255
    153c:	ca 1a       	sub	r12, r26
    153e:	da 0a       	sbc	r13, r26
    1540:	96 01       	movw	r18, r12
    1542:	22 0f       	add	r18, r18
    1544:	33 1f       	adc	r19, r19
    1546:	22 0f       	add	r18, r18
    1548:	33 1f       	adc	r19, r19
    154a:	8d 8c       	ldd	r8, Y+29	; 0x1d
    154c:	9e 8c       	ldd	r9, Y+30	; 0x1e
    154e:	82 0e       	add	r8, r18
    1550:	93 1e       	adc	r9, r19
    1552:	f4 01       	movw	r30, r8
    1554:	20 81       	ld	r18, Z
    1556:	31 81       	ldd	r19, Z+1	; 0x01
    1558:	42 81       	ldd	r20, Z+2	; 0x02
    155a:	53 81       	ldd	r21, Z+3	; 0x03
    155c:	0e 94 4a 14 	call	0x2894	; 0x2894 <__mulsf3>
    1560:	9b 01       	movw	r18, r22
    1562:	ac 01       	movw	r20, r24
    1564:	6b 85       	ldd	r22, Y+11	; 0x0b
    1566:	7c 85       	ldd	r23, Y+12	; 0x0c
    1568:	8d 85       	ldd	r24, Y+13	; 0x0d
    156a:	9e 85       	ldd	r25, Y+14	; 0x0e
    156c:	0e 94 99 10 	call	0x2132	; 0x2132 <__subsf3>
    1570:	6b 87       	std	Y+11, r22	; 0x0b
    1572:	7c 87       	std	Y+12, r23	; 0x0c
    1574:	8d 87       	std	Y+13, r24	; 0x0d
    1576:	9e 87       	std	Y+14, r25	; 0x0e
    1578:	2d 8d       	ldd	r18, Y+29	; 0x1d
    157a:	3e 8d       	ldd	r19, Y+30	; 0x1e
    157c:	2a 0d       	add	r18, r10
    157e:	3b 1d       	adc	r19, r11
    1580:	2b 8f       	std	Y+27, r18	; 0x1b
    1582:	3c 8f       	std	Y+28, r19	; 0x1c
    1584:	d9 01       	movw	r26, r18
    1586:	6d 93       	st	X+, r22
    1588:	7d 93       	st	X+, r23
    158a:	8d 93       	st	X+, r24
    158c:	9c 93       	st	X, r25
    158e:	13 97       	sbiw	r26, 0x03	; 3
			b[j] = ((float)rows[Row]->data[j + 1 + rows[Row]->start] - (float)rows[Row]->data[j + rows[Row]->start]) / h[j]
    1590:	f2 01       	movw	r30, r4
    1592:	e4 80       	ldd	r14, Z+4	; 0x04
    1594:	f5 80       	ldd	r15, Z+5	; 0x05
    1596:	00 81       	ld	r16, Z
    1598:	10 e0       	ldi	r17, 0x00	; 0
    159a:	f6 01       	movw	r30, r12
    159c:	e0 0f       	add	r30, r16
    159e:	f1 1f       	adc	r31, r17
    15a0:	ee 0f       	add	r30, r30
    15a2:	ff 1f       	adc	r31, r31
    15a4:	ee 0d       	add	r30, r14
    15a6:	ff 1d       	adc	r31, r15
    15a8:	60 81       	ld	r22, Z
    15aa:	71 81       	ldd	r23, Z+1	; 0x01
    15ac:	07 2e       	mov	r0, r23
    15ae:	00 0c       	add	r0, r0
    15b0:	88 0b       	sbc	r24, r24
    15b2:	99 0b       	sbc	r25, r25
    15b4:	0e 94 47 12 	call	0x248e	; 0x248e <__floatsisf>
    15b8:	6f 87       	std	Y+15, r22	; 0x0f
    15ba:	78 8b       	std	Y+16, r23	; 0x10
    15bc:	89 8b       	std	Y+17, r24	; 0x11
    15be:	9a 8b       	std	Y+18, r25	; 0x12
    15c0:	02 0d       	add	r16, r2
    15c2:	13 1d       	adc	r17, r3
    15c4:	00 0f       	add	r16, r16
    15c6:	11 1f       	adc	r17, r17
    15c8:	f7 01       	movw	r30, r14
    15ca:	e0 0f       	add	r30, r16
    15cc:	f1 1f       	adc	r31, r17
    15ce:	60 81       	ld	r22, Z
    15d0:	71 81       	ldd	r23, Z+1	; 0x01
    15d2:	07 2e       	mov	r0, r23
    15d4:	00 0c       	add	r0, r0
    15d6:	88 0b       	sbc	r24, r24
    15d8:	99 0b       	sbc	r25, r25
    15da:	0e 94 47 12 	call	0x248e	; 0x248e <__floatsisf>
    15de:	9b 01       	movw	r18, r22
    15e0:	ac 01       	movw	r20, r24
    15e2:	6f 85       	ldd	r22, Y+15	; 0x0f
    15e4:	78 89       	ldd	r23, Y+16	; 0x10
    15e6:	89 89       	ldd	r24, Y+17	; 0x11
    15e8:	9a 89       	ldd	r25, Y+18	; 0x12
    15ea:	0e 94 99 10 	call	0x2132	; 0x2132 <__subsf3>
    15ee:	83 01       	movw	r16, r6
    15f0:	0a 0d       	add	r16, r10
    15f2:	1b 1d       	adc	r17, r11
    15f4:	d8 01       	movw	r26, r16
    15f6:	cd 90       	ld	r12, X+
    15f8:	dd 90       	ld	r13, X+
    15fa:	ed 90       	ld	r14, X+
    15fc:	fc 90       	ld	r15, X
    15fe:	a7 01       	movw	r20, r14
    1600:	96 01       	movw	r18, r12
    1602:	0e 94 9d 11 	call	0x233a	; 0x233a <__divsf3>
    1606:	6f 8b       	std	Y+23, r22	; 0x17
    1608:	78 8f       	std	Y+24, r23	; 0x18
    160a:	89 8f       	std	Y+25, r24	; 0x19
    160c:	9a 8f       	std	Y+26, r25	; 0x1a
			- h[j] * (c[j + 1] + 2.0f * c[j]) / 3.0f;
    160e:	d4 01       	movw	r26, r8
    1610:	2d 91       	ld	r18, X+
    1612:	3d 91       	ld	r19, X+
    1614:	4d 91       	ld	r20, X+
    1616:	5c 91       	ld	r21, X
    1618:	2f 87       	std	Y+15, r18	; 0x0f
    161a:	38 8b       	std	Y+16, r19	; 0x10
    161c:	49 8b       	std	Y+17, r20	; 0x11
    161e:	5a 8b       	std	Y+18, r21	; 0x12
    1620:	2b 85       	ldd	r18, Y+11	; 0x0b
    1622:	3c 85       	ldd	r19, Y+12	; 0x0c
    1624:	4d 85       	ldd	r20, Y+13	; 0x0d
    1626:	5e 85       	ldd	r21, Y+14	; 0x0e
    1628:	ca 01       	movw	r24, r20
    162a:	b9 01       	movw	r22, r18
    162c:	0e 94 9a 10 	call	0x2134	; 0x2134 <__addsf3>
    1630:	9b 01       	movw	r18, r22
    1632:	ac 01       	movw	r20, r24
    1634:	6f 85       	ldd	r22, Y+15	; 0x0f
    1636:	78 89       	ldd	r23, Y+16	; 0x10
    1638:	89 89       	ldd	r24, Y+17	; 0x11
    163a:	9a 89       	ldd	r25, Y+18	; 0x12
    163c:	0e 94 9a 10 	call	0x2134	; 0x2134 <__addsf3>
    1640:	9b 01       	movw	r18, r22
    1642:	ac 01       	movw	r20, r24
    1644:	c7 01       	movw	r24, r14
    1646:	b6 01       	movw	r22, r12
    1648:	0e 94 4a 14 	call	0x2894	; 0x2894 <__mulsf3>
    164c:	20 e0       	ldi	r18, 0x00	; 0
    164e:	30 e0       	ldi	r19, 0x00	; 0
    1650:	40 e4       	ldi	r20, 0x40	; 64
    1652:	50 e4       	ldi	r21, 0x40	; 64
    1654:	0e 94 9d 11 	call	0x233a	; 0x233a <__divsf3>
    1658:	9b 01       	movw	r18, r22
    165a:	ac 01       	movw	r20, r24
    165c:	6f 89       	ldd	r22, Y+23	; 0x17
    165e:	78 8d       	ldd	r23, Y+24	; 0x18
    1660:	89 8d       	ldd	r24, Y+25	; 0x19
    1662:	9a 8d       	ldd	r25, Y+26	; 0x1a
    1664:	0e 94 99 10 	call	0x2132	; 0x2132 <__subsf3>
		c[rows[Row]->total] = 0.0f;

		// Atgalinës iteracijos bûdu apskaièiuojame c, b, d koeficientus
		for (int j = rows[Row]->total - 1; j >= 0; j--) {
			c[j] = z[j] - mu[j] * c[j + 1];
			b[j] = ((float)rows[Row]->data[j + 1 + rows[Row]->start] - (float)rows[Row]->data[j + rows[Row]->start]) / h[j]
    1668:	ef a5       	ldd	r30, Y+47	; 0x2f
    166a:	f8 a9       	ldd	r31, Y+48	; 0x30
    166c:	ea 0d       	add	r30, r10
    166e:	fb 1d       	adc	r31, r11
    1670:	60 83       	st	Z, r22
    1672:	71 83       	std	Z+1, r23	; 0x01
    1674:	82 83       	std	Z+2, r24	; 0x02
    1676:	93 83       	std	Z+3, r25	; 0x03
			- h[j] * (c[j + 1] + 2.0f * c[j]) / 3.0f;
			d[j] = (c[j + 1] - c[j]) / (3.0f * h[j]);
    1678:	f4 01       	movw	r30, r8
    167a:	60 81       	ld	r22, Z
    167c:	71 81       	ldd	r23, Z+1	; 0x01
    167e:	82 81       	ldd	r24, Z+2	; 0x02
    1680:	93 81       	ldd	r25, Z+3	; 0x03
    1682:	ab 8d       	ldd	r26, Y+27	; 0x1b
    1684:	bc 8d       	ldd	r27, Y+28	; 0x1c
    1686:	2d 91       	ld	r18, X+
    1688:	3d 91       	ld	r19, X+
    168a:	4d 91       	ld	r20, X+
    168c:	5c 91       	ld	r21, X
    168e:	0e 94 99 10 	call	0x2132	; 0x2132 <__subsf3>
    1692:	6b 01       	movw	r12, r22
    1694:	7c 01       	movw	r14, r24
    1696:	f8 01       	movw	r30, r16
    1698:	60 81       	ld	r22, Z
    169a:	71 81       	ldd	r23, Z+1	; 0x01
    169c:	82 81       	ldd	r24, Z+2	; 0x02
    169e:	93 81       	ldd	r25, Z+3	; 0x03
    16a0:	20 e0       	ldi	r18, 0x00	; 0
    16a2:	30 e0       	ldi	r19, 0x00	; 0
    16a4:	40 e4       	ldi	r20, 0x40	; 64
    16a6:	50 e4       	ldi	r21, 0x40	; 64
    16a8:	0e 94 4a 14 	call	0x2894	; 0x2894 <__mulsf3>
    16ac:	9b 01       	movw	r18, r22
    16ae:	ac 01       	movw	r20, r24
    16b0:	c7 01       	movw	r24, r14
    16b2:	b6 01       	movw	r22, r12
    16b4:	0e 94 9d 11 	call	0x233a	; 0x233a <__divsf3>
    16b8:	e9 a9       	ldd	r30, Y+49	; 0x31
    16ba:	fa a9       	ldd	r31, Y+50	; 0x32
    16bc:	ea 0d       	add	r30, r10
    16be:	fb 1d       	adc	r31, r11
    16c0:	60 83       	st	Z, r22
    16c2:	71 83       	std	Z+1, r23	; 0x01
    16c4:	82 83       	std	Z+2, r24	; 0x02
    16c6:	93 83       	std	Z+3, r25	; 0x03
			a[j] = (float)rows[Row]->data[j + rows[Row]->start];
    16c8:	d2 01       	movw	r26, r4
    16ca:	14 96       	adiw	r26, 0x04	; 4
    16cc:	8d 91       	ld	r24, X+
    16ce:	9c 91       	ld	r25, X
    16d0:	15 97       	sbiw	r26, 0x05	; 5
    16d2:	2c 91       	ld	r18, X
    16d4:	f1 01       	movw	r30, r2
    16d6:	e2 0f       	add	r30, r18
    16d8:	f1 1d       	adc	r31, r1
    16da:	ee 0f       	add	r30, r30
    16dc:	ff 1f       	adc	r31, r31
    16de:	e8 0f       	add	r30, r24
    16e0:	f9 1f       	adc	r31, r25
    16e2:	60 81       	ld	r22, Z
    16e4:	71 81       	ldd	r23, Z+1	; 0x01
    16e6:	07 2e       	mov	r0, r23
    16e8:	00 0c       	add	r0, r0
    16ea:	88 0b       	sbc	r24, r24
    16ec:	99 0b       	sbc	r25, r25
    16ee:	0e 94 47 12 	call	0x248e	; 0x248e <__floatsisf>
    16f2:	ed a5       	ldd	r30, Y+45	; 0x2d
    16f4:	fe a5       	ldd	r31, Y+46	; 0x2e
    16f6:	ea 0d       	add	r30, r10
    16f8:	fb 1d       	adc	r31, r11
    16fa:	60 83       	st	Z, r22
    16fc:	71 83       	std	Z+1, r23	; 0x01
    16fe:	82 83       	std	Z+2, r24	; 0x02
    1700:	93 83       	std	Z+3, r25	; 0x03
		l[rows[Row]->total] = 1.0f;
		z[rows[Row]->total] = 0.0f;
		c[rows[Row]->total] = 0.0f;

		// Atgalinës iteracijos bûdu apskaièiuojame c, b, d koeficientus
		for (int j = rows[Row]->total - 1; j >= 0; j--) {
    1702:	b1 e0       	ldi	r27, 0x01	; 1
    1704:	2b 1a       	sub	r2, r27
    1706:	31 08       	sbc	r3, r1
    1708:	33 20       	and	r3, r3
    170a:	0c f0       	brlt	.+2      	; 0x170e <azel+0xa34>
    170c:	fc ce       	rjmp	.-520    	; 0x1506 <azel+0x82c>
    170e:	c1 2c       	mov	r12, r1
    1710:	d1 2c       	mov	r13, r1
    1712:	b1 2c       	mov	r11, r1
    1714:	a1 2c       	mov	r10, r1
    1716:	19 a2       	std	Y+33, r1	; 0x21
    1718:	1f a2       	std	Y+39, r1	; 0x27
    171a:	19 a6       	std	Y+41, r1	; 0x29
    171c:	1b a6       	std	Y+43, r1	; 0x2b
    171e:	1f 8a       	std	Y+23, r1	; 0x17
    1720:	1f 8e       	std	Y+31, r1	; 0x1f
    1722:	31 2c       	mov	r3, r1
    1724:	21 2c       	mov	r2, r1
    1726:	8d a4       	ldd	r8, Y+45	; 0x2d
    1728:	9e a4       	ldd	r9, Y+46	; 0x2e
    172a:	6f a4       	ldd	r6, Y+47	; 0x2f
    172c:	78 a8       	ldd	r7, Y+48	; 0x30
    172e:	3b 8e       	std	Y+27, r3	; 0x1b
    1730:	2f 86       	std	Y+15, r2	; 0x0f
    1732:	29 a8       	ldd	r2, Y+49	; 0x31
    1734:	3a a8       	ldd	r3, Y+50	; 0x32
    1736:	d9 c0       	rjmp	.+434    	; 0x18ea <azel+0xc10>
		float max_value = 0;
		float max_angle = 0;

		for (float angle = 0.0f; angle <= range; angle += 0.1f) {
			int i;
			for (i = rows[Row]->total - 1; i >= 0; i--) {
    1738:	f2 01       	movw	r30, r4
    173a:	e1 80       	ldd	r14, Z+1	; 0x01
    173c:	f1 2c       	mov	r15, r1
    173e:	f1 e0       	ldi	r31, 0x01	; 1
    1740:	ef 1a       	sub	r14, r31
    1742:	f1 08       	sbc	r15, r1
    1744:	87 01       	movw	r16, r14
    1746:	29 c0       	rjmp	.+82     	; 0x179a <azel+0xac0>
				if (angle >= rows[Row]->angles[i] || (i == rows[Row]->total - 1 && angle == range)) {
    1748:	d2 01       	movw	r26, r4
    174a:	12 96       	adiw	r26, 0x02	; 2
    174c:	ed 91       	ld	r30, X+
    174e:	fc 91       	ld	r31, X
    1750:	13 97       	sbiw	r26, 0x03	; 3
    1752:	c8 01       	movw	r24, r16
    1754:	88 0f       	add	r24, r24
    1756:	99 1f       	adc	r25, r25
    1758:	88 0f       	add	r24, r24
    175a:	99 1f       	adc	r25, r25
    175c:	e8 0f       	add	r30, r24
    175e:	f9 1f       	adc	r31, r25
    1760:	20 81       	ld	r18, Z
    1762:	31 81       	ldd	r19, Z+1	; 0x01
    1764:	42 81       	ldd	r20, Z+2	; 0x02
    1766:	53 81       	ldd	r21, Z+3	; 0x03
    1768:	6c 2d       	mov	r22, r12
    176a:	7d 2d       	mov	r23, r13
    176c:	8b 2d       	mov	r24, r11
    176e:	9a 2d       	mov	r25, r10
    1770:	0e 94 3d 14 	call	0x287a	; 0x287a <__gesf2>
    1774:	88 23       	and	r24, r24
    1776:	9c f4       	brge	.+38     	; 0x179e <azel+0xac4>
    1778:	0e 15       	cp	r16, r14
    177a:	1f 05       	cpc	r17, r15
    177c:	61 f4       	brne	.+24     	; 0x1796 <azel+0xabc>
    177e:	2c 2d       	mov	r18, r12
    1780:	3d 2d       	mov	r19, r13
    1782:	4b 2d       	mov	r20, r11
    1784:	5a 2d       	mov	r21, r10
    1786:	6b a1       	ldd	r22, Y+35	; 0x23
    1788:	7c a1       	ldd	r23, Y+36	; 0x24
    178a:	8d a1       	ldd	r24, Y+37	; 0x25
    178c:	9e a1       	ldd	r25, Y+38	; 0x26
    178e:	0e 94 93 11 	call	0x2326	; 0x2326 <__cmpsf2>
    1792:	88 23       	and	r24, r24
    1794:	21 f0       	breq	.+8      	; 0x179e <azel+0xac4>
		float max_value = 0;
		float max_angle = 0;

		for (float angle = 0.0f; angle <= range; angle += 0.1f) {
			int i;
			for (i = rows[Row]->total - 1; i >= 0; i--) {
    1796:	01 50       	subi	r16, 0x01	; 1
    1798:	11 09       	sbc	r17, r1
    179a:	11 23       	and	r17, r17
    179c:	ac f6       	brge	.-86     	; 0x1748 <azel+0xa6e>
				if (angle >= rows[Row]->angles[i] || (i == rows[Row]->total - 1 && angle == range)) {
					break;
				}
			}

			float dx = angle - rows[Row]->angles[i];
    179e:	d2 01       	movw	r26, r4
    17a0:	12 96       	adiw	r26, 0x02	; 2
    17a2:	ed 91       	ld	r30, X+
    17a4:	fc 91       	ld	r31, X
    17a6:	13 97       	sbiw	r26, 0x03	; 3
    17a8:	00 0f       	add	r16, r16
    17aa:	11 1f       	adc	r17, r17
    17ac:	00 0f       	add	r16, r16
    17ae:	11 1f       	adc	r17, r17
    17b0:	e0 0f       	add	r30, r16
    17b2:	f1 1f       	adc	r31, r17
    17b4:	20 81       	ld	r18, Z
    17b6:	31 81       	ldd	r19, Z+1	; 0x01
    17b8:	42 81       	ldd	r20, Z+2	; 0x02
    17ba:	53 81       	ldd	r21, Z+3	; 0x03
    17bc:	6c 2d       	mov	r22, r12
    17be:	7d 2d       	mov	r23, r13
    17c0:	8b 2d       	mov	r24, r11
    17c2:	9a 2d       	mov	r25, r10
    17c4:	0e 94 99 10 	call	0x2132	; 0x2132 <__subsf3>
    17c8:	6b 87       	std	Y+11, r22	; 0x0b
    17ca:	7c 87       	std	Y+12, r23	; 0x0c
    17cc:	8d 87       	std	Y+13, r24	; 0x0d
    17ce:	9e 87       	std	Y+14, r25	; 0x0e
			float interpolated_value = a[i] + b[i] * dx + c[i] * dx * dx + d[i] * dx * dx * dx;
    17d0:	f4 01       	movw	r30, r8
    17d2:	e0 0f       	add	r30, r16
    17d4:	f1 1f       	adc	r31, r17
    17d6:	20 81       	ld	r18, Z
    17d8:	31 81       	ldd	r19, Z+1	; 0x01
    17da:	42 81       	ldd	r20, Z+2	; 0x02
    17dc:	53 81       	ldd	r21, Z+3	; 0x03
    17de:	2b 8b       	std	Y+19, r18	; 0x13
    17e0:	3c 8b       	std	Y+20, r19	; 0x14
    17e2:	4d 8b       	std	Y+21, r20	; 0x15
    17e4:	5e 8b       	std	Y+22, r21	; 0x16
    17e6:	f3 01       	movw	r30, r6
    17e8:	e0 0f       	add	r30, r16
    17ea:	f1 1f       	adc	r31, r17
    17ec:	20 81       	ld	r18, Z
    17ee:	31 81       	ldd	r19, Z+1	; 0x01
    17f0:	42 81       	ldd	r20, Z+2	; 0x02
    17f2:	53 81       	ldd	r21, Z+3	; 0x03
    17f4:	0e 94 4a 14 	call	0x2894	; 0x2894 <__mulsf3>
    17f8:	9b 01       	movw	r18, r22
    17fa:	ac 01       	movw	r20, r24
    17fc:	6b 89       	ldd	r22, Y+19	; 0x13
    17fe:	7c 89       	ldd	r23, Y+20	; 0x14
    1800:	8d 89       	ldd	r24, Y+21	; 0x15
    1802:	9e 89       	ldd	r25, Y+22	; 0x16
    1804:	0e 94 9a 10 	call	0x2134	; 0x2134 <__addsf3>
    1808:	6b 8b       	std	Y+19, r22	; 0x13
    180a:	7c 8b       	std	Y+20, r23	; 0x14
    180c:	8d 8b       	std	Y+21, r24	; 0x15
    180e:	9e 8b       	std	Y+22, r25	; 0x16
    1810:	ed 8d       	ldd	r30, Y+29	; 0x1d
    1812:	fe 8d       	ldd	r31, Y+30	; 0x1e
    1814:	e0 0f       	add	r30, r16
    1816:	f1 1f       	adc	r31, r17
    1818:	20 81       	ld	r18, Z
    181a:	31 81       	ldd	r19, Z+1	; 0x01
    181c:	42 81       	ldd	r20, Z+2	; 0x02
    181e:	53 81       	ldd	r21, Z+3	; 0x03
    1820:	6b 85       	ldd	r22, Y+11	; 0x0b
    1822:	7c 85       	ldd	r23, Y+12	; 0x0c
    1824:	8d 85       	ldd	r24, Y+13	; 0x0d
    1826:	9e 85       	ldd	r25, Y+14	; 0x0e
    1828:	0e 94 4a 14 	call	0x2894	; 0x2894 <__mulsf3>
    182c:	9b 01       	movw	r18, r22
    182e:	ac 01       	movw	r20, r24
    1830:	6b 85       	ldd	r22, Y+11	; 0x0b
    1832:	7c 85       	ldd	r23, Y+12	; 0x0c
    1834:	8d 85       	ldd	r24, Y+13	; 0x0d
    1836:	9e 85       	ldd	r25, Y+14	; 0x0e
    1838:	0e 94 4a 14 	call	0x2894	; 0x2894 <__mulsf3>
    183c:	9b 01       	movw	r18, r22
    183e:	ac 01       	movw	r20, r24
    1840:	6b 89       	ldd	r22, Y+19	; 0x13
    1842:	7c 89       	ldd	r23, Y+20	; 0x14
    1844:	8d 89       	ldd	r24, Y+21	; 0x15
    1846:	9e 89       	ldd	r25, Y+22	; 0x16
    1848:	0e 94 9a 10 	call	0x2134	; 0x2134 <__addsf3>
    184c:	6b 8b       	std	Y+19, r22	; 0x13
    184e:	7c 8b       	std	Y+20, r23	; 0x14
    1850:	8d 8b       	std	Y+21, r24	; 0x15
    1852:	9e 8b       	std	Y+22, r25	; 0x16
    1854:	f1 01       	movw	r30, r2
    1856:	e0 0f       	add	r30, r16
    1858:	f1 1f       	adc	r31, r17
    185a:	20 81       	ld	r18, Z
    185c:	31 81       	ldd	r19, Z+1	; 0x01
    185e:	42 81       	ldd	r20, Z+2	; 0x02
    1860:	53 81       	ldd	r21, Z+3	; 0x03
    1862:	6b 85       	ldd	r22, Y+11	; 0x0b
    1864:	7c 85       	ldd	r23, Y+12	; 0x0c
    1866:	8d 85       	ldd	r24, Y+13	; 0x0d
    1868:	9e 85       	ldd	r25, Y+14	; 0x0e
    186a:	0e 94 4a 14 	call	0x2894	; 0x2894 <__mulsf3>
    186e:	9b 01       	movw	r18, r22
    1870:	ac 01       	movw	r20, r24
    1872:	6b 85       	ldd	r22, Y+11	; 0x0b
    1874:	7c 85       	ldd	r23, Y+12	; 0x0c
    1876:	8d 85       	ldd	r24, Y+13	; 0x0d
    1878:	9e 85       	ldd	r25, Y+14	; 0x0e
    187a:	0e 94 4a 14 	call	0x2894	; 0x2894 <__mulsf3>
    187e:	9b 01       	movw	r18, r22
    1880:	ac 01       	movw	r20, r24
    1882:	6b 85       	ldd	r22, Y+11	; 0x0b
    1884:	7c 85       	ldd	r23, Y+12	; 0x0c
    1886:	8d 85       	ldd	r24, Y+13	; 0x0d
    1888:	9e 85       	ldd	r25, Y+14	; 0x0e
    188a:	0e 94 4a 14 	call	0x2894	; 0x2894 <__mulsf3>
    188e:	9b 01       	movw	r18, r22
    1890:	ac 01       	movw	r20, r24
    1892:	6b 89       	ldd	r22, Y+19	; 0x13
    1894:	7c 89       	ldd	r23, Y+20	; 0x14
    1896:	8d 89       	ldd	r24, Y+21	; 0x15
    1898:	9e 89       	ldd	r25, Y+22	; 0x16
    189a:	0e 94 9a 10 	call	0x2134	; 0x2134 <__addsf3>
    189e:	e6 2e       	mov	r14, r22
    18a0:	f7 2e       	mov	r15, r23
    18a2:	08 2f       	mov	r16, r24
    18a4:	19 2f       	mov	r17, r25

			if (interpolated_value > max_value) {
    18a6:	26 2f       	mov	r18, r22
    18a8:	37 2f       	mov	r19, r23
    18aa:	48 2f       	mov	r20, r24
    18ac:	59 2f       	mov	r21, r25
    18ae:	6f 89       	ldd	r22, Y+23	; 0x17
    18b0:	7f 8d       	ldd	r23, Y+31	; 0x1f
    18b2:	8b 8d       	ldd	r24, Y+27	; 0x1b
    18b4:	9f 85       	ldd	r25, Y+15	; 0x0f
    18b6:	0e 94 93 11 	call	0x2326	; 0x2326 <__cmpsf2>
    18ba:	88 23       	and	r24, r24
    18bc:	44 f4       	brge	.+16     	; 0x18ce <azel+0xbf4>
				max_value = interpolated_value;
				max_angle = angle;
    18be:	c9 a2       	std	Y+33, r12	; 0x21
    18c0:	df a2       	std	Y+39, r13	; 0x27
    18c2:	b9 a6       	std	Y+41, r11	; 0x29
    18c4:	ab a6       	std	Y+43, r10	; 0x2b

			float dx = angle - rows[Row]->angles[i];
			float interpolated_value = a[i] + b[i] * dx + c[i] * dx * dx + d[i] * dx * dx * dx;

			if (interpolated_value > max_value) {
				max_value = interpolated_value;
    18c6:	ef 8a       	std	Y+23, r14	; 0x17
    18c8:	ff 8e       	std	Y+31, r15	; 0x1f
    18ca:	0b 8f       	std	Y+27, r16	; 0x1b
    18cc:	1f 87       	std	Y+15, r17	; 0x0f

		// Surandame maksimalø interpoliuotà reikðmæ ir kampà
		float max_value = 0;
		float max_angle = 0;

		for (float angle = 0.0f; angle <= range; angle += 0.1f) {
    18ce:	2d ec       	ldi	r18, 0xCD	; 205
    18d0:	3c ec       	ldi	r19, 0xCC	; 204
    18d2:	4c ec       	ldi	r20, 0xCC	; 204
    18d4:	5d e3       	ldi	r21, 0x3D	; 61
    18d6:	6c 2d       	mov	r22, r12
    18d8:	7d 2d       	mov	r23, r13
    18da:	8b 2d       	mov	r24, r11
    18dc:	9a 2d       	mov	r25, r10
    18de:	0e 94 9a 10 	call	0x2134	; 0x2134 <__addsf3>
    18e2:	c6 2e       	mov	r12, r22
    18e4:	d7 2e       	mov	r13, r23
    18e6:	b8 2e       	mov	r11, r24
    18e8:	a9 2e       	mov	r10, r25
    18ea:	2c 2d       	mov	r18, r12
    18ec:	3d 2d       	mov	r19, r13
    18ee:	4b 2d       	mov	r20, r11
    18f0:	5a 2d       	mov	r21, r10
    18f2:	6b a1       	ldd	r22, Y+35	; 0x23
    18f4:	7c a1       	ldd	r23, Y+36	; 0x24
    18f6:	8d a1       	ldd	r24, Y+37	; 0x25
    18f8:	9e a1       	ldd	r25, Y+38	; 0x26
    18fa:	0e 94 3d 14 	call	0x287a	; 0x287a <__gesf2>
    18fe:	88 23       	and	r24, r24
    1900:	0c f0       	brlt	.+2      	; 0x1904 <azel+0xc2a>
    1902:	1a cf       	rjmp	.-460    	; 0x1738 <azel+0xa5e>
    1904:	3b 8c       	ldd	r3, Y+27	; 0x1b
    1906:	2f 84       	ldd	r2, Y+15	; 0x0f
				max_value = interpolated_value;
				max_angle = angle;
			}
		}

		if (Row != 4) {
    1908:	3b a9       	ldd	r19, Y+51	; 0x33
    190a:	34 30       	cpi	r19, 0x04	; 4
    190c:	79 f0       	breq	.+30     	; 0x192c <azel+0xc52>
			sensor_top_of_rows[Row] = (int16_t)max_value;
    190e:	6f 89       	ldd	r22, Y+23	; 0x17
    1910:	7f 8d       	ldd	r23, Y+31	; 0x1f
    1912:	83 2d       	mov	r24, r3
    1914:	92 2d       	mov	r25, r2
    1916:	0e 94 0f 12 	call	0x241e	; 0x241e <__fixsfsi>
    191a:	ec ad       	ldd	r30, Y+60	; 0x3c
    191c:	fd ad       	ldd	r31, Y+61	; 0x3d
    191e:	ee 0f       	add	r30, r30
    1920:	ff 1f       	adc	r31, r31
    1922:	ee 58       	subi	r30, 0x8E	; 142
    1924:	f6 4c       	sbci	r31, 0xC6	; 198
    1926:	60 83       	st	Z, r22
    1928:	71 83       	std	Z+1, r23	; 0x01
    192a:	0c c0       	rjmp	.+24     	; 0x1944 <azel+0xc6a>
			} else {
			ELEVATION.total_average_angle = max_angle;
    192c:	89 a1       	ldd	r24, Y+33	; 0x21
    192e:	9f a1       	ldd	r25, Y+39	; 0x27
    1930:	a9 a5       	ldd	r26, Y+41	; 0x29
    1932:	bb a5       	ldd	r27, Y+43	; 0x2b
    1934:	80 93 19 38 	sts	0x3819, r24	; 0x803819 <ELEVATION+0x1>
    1938:	90 93 1a 38 	sts	0x381A, r25	; 0x80381a <ELEVATION+0x2>
    193c:	a0 93 1b 38 	sts	0x381B, r26	; 0x80381b <ELEVATION+0x3>
    1940:	b0 93 1c 38 	sts	0x381C, r27	; 0x80381c <ELEVATION+0x4>
		}

		rows[Row]->top_angle = max_angle;
    1944:	89 a1       	ldd	r24, Y+33	; 0x21
    1946:	9f a1       	ldd	r25, Y+39	; 0x27
    1948:	a9 a5       	ldd	r26, Y+41	; 0x29
    194a:	bb a5       	ldd	r27, Y+43	; 0x2b
    194c:	f2 01       	movw	r30, r4
    194e:	86 83       	std	Z+6, r24	; 0x06
    1950:	97 83       	std	Z+7, r25	; 0x07
    1952:	a0 87       	std	Z+8, r26	; 0x08
    1954:	b1 87       	std	Z+9, r27	; 0x09
    1956:	2e ad       	ldd	r18, Y+62	; 0x3e
    1958:	3f ad       	ldd	r19, Y+63	; 0x3f
    195a:	2d bf       	out	0x3d, r18	; 61
    195c:	3e bf       	out	0x3e, r19	; 62
    195e:	1b c0       	rjmp	.+54     	; 0x1996 <azel+0xcbc>
	}
	else {
		// Jei Row = 4 (elevacija), tiesiog naudojame pirmà sensorá kaip topo reikðmæ
		sensor_top_of_rows[Row] = (int16_t)sensor_data[rows[Row]->start];
    1960:	3b a9       	ldd	r19, Y+51	; 0x33
    1962:	83 2f       	mov	r24, r19
    1964:	90 e0       	ldi	r25, 0x00	; 0
    1966:	88 0f       	add	r24, r24
    1968:	99 1f       	adc	r25, r25
    196a:	e1 e0       	ldi	r30, 0x01	; 1
    196c:	f0 e0       	ldi	r31, 0x00	; 0
    196e:	ec 0f       	add	r30, r28
    1970:	fd 1f       	adc	r31, r29
    1972:	e8 0f       	add	r30, r24
    1974:	f9 1f       	adc	r31, r25
    1976:	01 90       	ld	r0, Z+
    1978:	f0 81       	ld	r31, Z
    197a:	e0 2d       	mov	r30, r0
    197c:	e0 81       	ld	r30, Z
    197e:	f0 e0       	ldi	r31, 0x00	; 0
    1980:	ee 0f       	add	r30, r30
    1982:	ff 1f       	adc	r31, r31
    1984:	e6 58       	subi	r30, 0x86	; 134
    1986:	f6 4c       	sbci	r31, 0xC6	; 198
    1988:	20 81       	ld	r18, Z
    198a:	31 81       	ldd	r19, Z+1	; 0x01
    198c:	fc 01       	movw	r30, r24
    198e:	ee 58       	subi	r30, 0x8E	; 142
    1990:	f6 4c       	sbci	r31, 0xC6	; 198
    1992:	20 83       	st	Z, r18
    1994:	31 83       	std	Z+1, r19	; 0x01
	}
}
    1996:	4c a9       	ldd	r20, Y+52	; 0x34
    1998:	5d a9       	ldd	r21, Y+53	; 0x35
    199a:	4d bf       	out	0x3d, r20	; 61
    199c:	5e bf       	out	0x3e, r21	; 62
    199e:	ef 96       	adiw	r28, 0x3f	; 63
    19a0:	cd bf       	out	0x3d, r28	; 61
    19a2:	de bf       	out	0x3e, r29	; 62
    19a4:	df 91       	pop	r29
    19a6:	cf 91       	pop	r28
    19a8:	1f 91       	pop	r17
    19aa:	0f 91       	pop	r16
    19ac:	ff 90       	pop	r15
    19ae:	ef 90       	pop	r14
    19b0:	df 90       	pop	r13
    19b2:	cf 90       	pop	r12
    19b4:	bf 90       	pop	r11
    19b6:	af 90       	pop	r10
    19b8:	9f 90       	pop	r9
    19ba:	8f 90       	pop	r8
    19bc:	7f 90       	pop	r7
    19be:	6f 90       	pop	r6
    19c0:	5f 90       	pop	r5
    19c2:	4f 90       	pop	r4
    19c4:	3f 90       	pop	r3
    19c6:	2f 90       	pop	r2
    19c8:	08 95       	ret

000019ca <azimuth_average_angle>:
 *  Author: Saulius
 */ 
#include "Settings.h"
#include "FilterVar.h"

void azimuth_average_angle(uint8_t scale) {	 //calculating average azimuth according to each row weight (coeficients) and later those weight is corrected according to elevation data
    19ca:	2f 92       	push	r2
    19cc:	3f 92       	push	r3
    19ce:	6f 92       	push	r6
    19d0:	7f 92       	push	r7
    19d2:	8f 92       	push	r8
    19d4:	9f 92       	push	r9
    19d6:	af 92       	push	r10
    19d8:	bf 92       	push	r11
    19da:	cf 92       	push	r12
    19dc:	df 92       	push	r13
    19de:	ef 92       	push	r14
    19e0:	ff 92       	push	r15
    19e2:	0f 93       	push	r16
    19e4:	1f 93       	push	r17
    19e6:	cf 93       	push	r28
    19e8:	df 93       	push	r29
    19ea:	cd b7       	in	r28, 0x3d	; 61
    19ec:	de b7       	in	r29, 0x3e	; 62
    19ee:	64 97       	sbiw	r28, 0x14	; 20
    19f0:	cd bf       	out	0x3d, r28	; 61
    19f2:	de bf       	out	0x3e, r29	; 62
    19f4:	28 2e       	mov	r2, r24
	ROW* rows[4] = {&first, &second, &third, &fourth};// Pointer array to rows
    19f6:	88 e0       	ldi	r24, 0x08	; 8
    19f8:	e0 e0       	ldi	r30, 0x00	; 0
    19fa:	f6 eb       	ldi	r31, 0xB6	; 182
    19fc:	de 01       	movw	r26, r28
    19fe:	11 96       	adiw	r26, 0x01	; 1
    1a00:	01 90       	ld	r0, Z+
    1a02:	0d 92       	st	X+, r0
    1a04:	8a 95       	dec	r24
    1a06:	e1 f7       	brne	.-8      	; 0x1a00 <azimuth_average_angle+0x36>

	float total_weighted_x = 0.0;
	float total_weighted_y = 0.0;
	float total_elevation_weight = 0.0;

	for (uint8_t i = 0; i < TOTAL_ROWS; i++){
    1a08:	10 e0       	ldi	r17, 0x00	; 0
	const float alpha = 0.5;// weight coeficient for each row number of sensors coeficients
	const float beta = 0.5; // weight coeficient for elevation data

	float total_weighted_x = 0.0;
	float total_weighted_y = 0.0;
	float total_elevation_weight = 0.0;
    1a0a:	c1 2c       	mov	r12, r1
    1a0c:	d1 2c       	mov	r13, r1
    1a0e:	76 01       	movw	r14, r12

	for (uint8_t i = 0; i < TOTAL_ROWS; i++){
    1a10:	17 c0       	rjmp	.+46     	; 0x1a40 <azimuth_average_angle+0x76>
		total_elevation_weight += (float)sensor_top_of_rows[i]; // calculating overall data weight
    1a12:	e1 2f       	mov	r30, r17
    1a14:	f0 e0       	ldi	r31, 0x00	; 0
    1a16:	ee 0f       	add	r30, r30
    1a18:	ff 1f       	adc	r31, r31
    1a1a:	ee 58       	subi	r30, 0x8E	; 142
    1a1c:	f6 4c       	sbci	r31, 0xC6	; 198
    1a1e:	60 81       	ld	r22, Z
    1a20:	71 81       	ldd	r23, Z+1	; 0x01
    1a22:	07 2e       	mov	r0, r23
    1a24:	00 0c       	add	r0, r0
    1a26:	88 0b       	sbc	r24, r24
    1a28:	99 0b       	sbc	r25, r25
    1a2a:	0e 94 47 12 	call	0x248e	; 0x248e <__floatsisf>
    1a2e:	9b 01       	movw	r18, r22
    1a30:	ac 01       	movw	r20, r24
    1a32:	c7 01       	movw	r24, r14
    1a34:	b6 01       	movw	r22, r12
    1a36:	0e 94 9a 10 	call	0x2134	; 0x2134 <__addsf3>
    1a3a:	6b 01       	movw	r12, r22
    1a3c:	7c 01       	movw	r14, r24

	float total_weighted_x = 0.0;
	float total_weighted_y = 0.0;
	float total_elevation_weight = 0.0;

	for (uint8_t i = 0; i < TOTAL_ROWS; i++){
    1a3e:	1f 5f       	subi	r17, 0xFF	; 255
    1a40:	14 30       	cpi	r17, 0x04	; 4
    1a42:	38 f3       	brcs	.-50     	; 0x1a12 <azimuth_average_angle+0x48>
    1a44:	31 2c       	mov	r3, r1
    1a46:	19 8a       	std	Y+17, r1	; 0x11
    1a48:	1a 8a       	std	Y+18, r1	; 0x12
    1a4a:	1b 8a       	std	Y+19, r1	; 0x13
    1a4c:	1c 8a       	std	Y+20, r1	; 0x14
    1a4e:	1d 86       	std	Y+13, r1	; 0x0d
    1a50:	1e 86       	std	Y+14, r1	; 0x0e
    1a52:	1f 86       	std	Y+15, r1	; 0x0f
    1a54:	18 8a       	std	Y+16, r1	; 0x10
    1a56:	84 c0       	rjmp	.+264    	; 0x1b60 <azimuth_average_angle+0x196>
		total_elevation_weight += (float)sensor_top_of_rows[i]; // calculating overall data weight
	}


	for (uint8_t i = 0; i < TOTAL_ROWS/*3*/; /*++i*/i++){		
		float angle_rad = ((float)rows[i]->top_angle / scale) * DEG_TO_RAD;// Scale the angle and convert to radians		
    1a58:	03 2d       	mov	r16, r3
    1a5a:	10 e0       	ldi	r17, 0x00	; 0
    1a5c:	00 0f       	add	r16, r16
    1a5e:	11 1f       	adc	r17, r17
    1a60:	e1 e0       	ldi	r30, 0x01	; 1
    1a62:	f0 e0       	ldi	r31, 0x00	; 0
    1a64:	ec 0f       	add	r30, r28
    1a66:	fd 1f       	adc	r31, r29
    1a68:	e0 0f       	add	r30, r16
    1a6a:	f1 1f       	adc	r31, r17
    1a6c:	60 80       	ld	r6, Z
    1a6e:	71 80       	ldd	r7, Z+1	; 0x01
    1a70:	f3 01       	movw	r30, r6
    1a72:	86 80       	ldd	r8, Z+6	; 0x06
    1a74:	97 80       	ldd	r9, Z+7	; 0x07
    1a76:	a0 84       	ldd	r10, Z+8	; 0x08
    1a78:	b1 84       	ldd	r11, Z+9	; 0x09
    1a7a:	62 2d       	mov	r22, r2
    1a7c:	70 e0       	ldi	r23, 0x00	; 0
    1a7e:	80 e0       	ldi	r24, 0x00	; 0
    1a80:	90 e0       	ldi	r25, 0x00	; 0
    1a82:	0e 94 47 12 	call	0x248e	; 0x248e <__floatsisf>
    1a86:	9b 01       	movw	r18, r22
    1a88:	ac 01       	movw	r20, r24
    1a8a:	c5 01       	movw	r24, r10
    1a8c:	b4 01       	movw	r22, r8
    1a8e:	0e 94 9d 11 	call	0x233a	; 0x233a <__divsf3>
    1a92:	25 e3       	ldi	r18, 0x35	; 53
    1a94:	3a ef       	ldi	r19, 0xFA	; 250
    1a96:	4e e8       	ldi	r20, 0x8E	; 142
    1a98:	5c e3       	ldi	r21, 0x3C	; 60
    1a9a:	0e 94 4a 14 	call	0x2894	; 0x2894 <__mulsf3>
    1a9e:	69 87       	std	Y+9, r22	; 0x09
    1aa0:	7a 87       	std	Y+10, r23	; 0x0a
    1aa2:	8b 87       	std	Y+11, r24	; 0x0b
    1aa4:	9c 87       	std	Y+12, r25	; 0x0c
		float weight_correction = (alpha * rows[i]->weight) + (beta * (total_elevation_weight / sensor_top_of_rows[i])); //weight correction according elevation data of each max values of rows
    1aa6:	f3 01       	movw	r30, r6
    1aa8:	62 85       	ldd	r22, Z+10	; 0x0a
    1aaa:	73 85       	ldd	r23, Z+11	; 0x0b
    1aac:	84 85       	ldd	r24, Z+12	; 0x0c
    1aae:	95 85       	ldd	r25, Z+13	; 0x0d
    1ab0:	20 e0       	ldi	r18, 0x00	; 0
    1ab2:	30 e0       	ldi	r19, 0x00	; 0
    1ab4:	40 e0       	ldi	r20, 0x00	; 0
    1ab6:	5f e3       	ldi	r21, 0x3F	; 63
    1ab8:	0e 94 4a 14 	call	0x2894	; 0x2894 <__mulsf3>
    1abc:	4b 01       	movw	r8, r22
    1abe:	5c 01       	movw	r10, r24
    1ac0:	f8 01       	movw	r30, r16
    1ac2:	ee 58       	subi	r30, 0x8E	; 142
    1ac4:	f6 4c       	sbci	r31, 0xC6	; 198
    1ac6:	60 81       	ld	r22, Z
    1ac8:	71 81       	ldd	r23, Z+1	; 0x01
    1aca:	07 2e       	mov	r0, r23
    1acc:	00 0c       	add	r0, r0
    1ace:	88 0b       	sbc	r24, r24
    1ad0:	99 0b       	sbc	r25, r25
    1ad2:	0e 94 47 12 	call	0x248e	; 0x248e <__floatsisf>
    1ad6:	9b 01       	movw	r18, r22
    1ad8:	ac 01       	movw	r20, r24
    1ada:	c7 01       	movw	r24, r14
    1adc:	b6 01       	movw	r22, r12
    1ade:	0e 94 9d 11 	call	0x233a	; 0x233a <__divsf3>
    1ae2:	20 e0       	ldi	r18, 0x00	; 0
    1ae4:	30 e0       	ldi	r19, 0x00	; 0
    1ae6:	40 e0       	ldi	r20, 0x00	; 0
    1ae8:	5f e3       	ldi	r21, 0x3F	; 63
    1aea:	0e 94 4a 14 	call	0x2894	; 0x2894 <__mulsf3>
    1aee:	9b 01       	movw	r18, r22
    1af0:	ac 01       	movw	r20, r24
    1af2:	c5 01       	movw	r24, r10
    1af4:	b4 01       	movw	r22, r8
    1af6:	0e 94 9a 10 	call	0x2134	; 0x2134 <__addsf3>
    1afa:	4b 01       	movw	r8, r22
    1afc:	5c 01       	movw	r10, r24
		total_weighted_x += cosf(angle_rad) * /*rows[i]->weight*/weight_correction;// Precompute cosine and sine of the angle, then multiply by weight
    1afe:	69 85       	ldd	r22, Y+9	; 0x09
    1b00:	7a 85       	ldd	r23, Y+10	; 0x0a
    1b02:	8b 85       	ldd	r24, Y+11	; 0x0b
    1b04:	9c 85       	ldd	r25, Y+12	; 0x0c
    1b06:	0e 94 98 11 	call	0x2330	; 0x2330 <cos>
    1b0a:	9b 01       	movw	r18, r22
    1b0c:	ac 01       	movw	r20, r24
    1b0e:	c5 01       	movw	r24, r10
    1b10:	b4 01       	movw	r22, r8
    1b12:	0e 94 4a 14 	call	0x2894	; 0x2894 <__mulsf3>
    1b16:	9b 01       	movw	r18, r22
    1b18:	ac 01       	movw	r20, r24
    1b1a:	6d 85       	ldd	r22, Y+13	; 0x0d
    1b1c:	7e 85       	ldd	r23, Y+14	; 0x0e
    1b1e:	8f 85       	ldd	r24, Y+15	; 0x0f
    1b20:	98 89       	ldd	r25, Y+16	; 0x10
    1b22:	0e 94 9a 10 	call	0x2134	; 0x2134 <__addsf3>
    1b26:	6d 87       	std	Y+13, r22	; 0x0d
    1b28:	7e 87       	std	Y+14, r23	; 0x0e
    1b2a:	8f 87       	std	Y+15, r24	; 0x0f
    1b2c:	98 8b       	std	Y+16, r25	; 0x10
		total_weighted_y += sinf(angle_rad) * /*rows[i]->weight*/weight_correction;
    1b2e:	69 85       	ldd	r22, Y+9	; 0x09
    1b30:	7a 85       	ldd	r23, Y+10	; 0x0a
    1b32:	8b 85       	ldd	r24, Y+11	; 0x0b
    1b34:	9c 85       	ldd	r25, Y+12	; 0x0c
    1b36:	0e 94 b7 14 	call	0x296e	; 0x296e <sin>
    1b3a:	9b 01       	movw	r18, r22
    1b3c:	ac 01       	movw	r20, r24
    1b3e:	c5 01       	movw	r24, r10
    1b40:	b4 01       	movw	r22, r8
    1b42:	0e 94 4a 14 	call	0x2894	; 0x2894 <__mulsf3>
    1b46:	9b 01       	movw	r18, r22
    1b48:	ac 01       	movw	r20, r24
    1b4a:	69 89       	ldd	r22, Y+17	; 0x11
    1b4c:	7a 89       	ldd	r23, Y+18	; 0x12
    1b4e:	8b 89       	ldd	r24, Y+19	; 0x13
    1b50:	9c 89       	ldd	r25, Y+20	; 0x14
    1b52:	0e 94 9a 10 	call	0x2134	; 0x2134 <__addsf3>
    1b56:	69 8b       	std	Y+17, r22	; 0x11
    1b58:	7a 8b       	std	Y+18, r23	; 0x12
    1b5a:	8b 8b       	std	Y+19, r24	; 0x13
    1b5c:	9c 8b       	std	Y+20, r25	; 0x14
	for (uint8_t i = 0; i < TOTAL_ROWS; i++){
		total_elevation_weight += (float)sensor_top_of_rows[i]; // calculating overall data weight
	}


	for (uint8_t i = 0; i < TOTAL_ROWS/*3*/; /*++i*/i++){		
    1b5e:	33 94       	inc	r3
    1b60:	f3 e0       	ldi	r31, 0x03	; 3
    1b62:	f3 15       	cp	r31, r3
    1b64:	08 f0       	brcs	.+2      	; 0x1b68 <azimuth_average_angle+0x19e>
    1b66:	78 cf       	rjmp	.-272    	; 0x1a58 <azimuth_average_angle+0x8e>
		float angle_rad = ((float)rows[i]->top_angle / scale) * DEG_TO_RAD;// Scale the angle and convert to radians		
		float weight_correction = (alpha * rows[i]->weight) + (beta * (total_elevation_weight / sensor_top_of_rows[i])); //weight correction according elevation data of each max values of rows
		total_weighted_x += cosf(angle_rad) * /*rows[i]->weight*/weight_correction;// Precompute cosine and sine of the angle, then multiply by weight
		total_weighted_y += sinf(angle_rad) * /*rows[i]->weight*/weight_correction;
	}
	float average_angle_rad = atan2f(total_weighted_y, total_weighted_x);// Calculate the average angle in radians
    1b68:	2d 85       	ldd	r18, Y+13	; 0x0d
    1b6a:	3e 85       	ldd	r19, Y+14	; 0x0e
    1b6c:	4f 85       	ldd	r20, Y+15	; 0x0f
    1b6e:	58 89       	ldd	r21, Y+16	; 0x10
    1b70:	69 89       	ldd	r22, Y+17	; 0x11
    1b72:	7a 89       	ldd	r23, Y+18	; 0x12
    1b74:	8b 89       	ldd	r24, Y+19	; 0x13
    1b76:	9c 89       	ldd	r25, Y+20	; 0x14
    1b78:	0e 94 34 11 	call	0x2268	; 0x2268 <atan2>
	float average_angle_deg = average_angle_rad * RAD_TO_DEG;// Convert the average angle to degrees
    1b7c:	20 ee       	ldi	r18, 0xE0	; 224
    1b7e:	3e e2       	ldi	r19, 0x2E	; 46
    1b80:	45 e6       	ldi	r20, 0x65	; 101
    1b82:	52 e4       	ldi	r21, 0x42	; 66
    1b84:	0e 94 4a 14 	call	0x2894	; 0x2894 <__mulsf3>
    1b88:	6b 01       	movw	r12, r22
    1b8a:	7c 01       	movw	r14, r24
	if (average_angle_deg < 0) {// Normalize angle to [0, 360) range
    1b8c:	20 e0       	ldi	r18, 0x00	; 0
    1b8e:	30 e0       	ldi	r19, 0x00	; 0
    1b90:	a9 01       	movw	r20, r18
    1b92:	0e 94 93 11 	call	0x2326	; 0x2326 <__cmpsf2>
    1b96:	88 23       	and	r24, r24
    1b98:	54 f4       	brge	.+20     	; 0x1bae <azimuth_average_angle+0x1e4>
		average_angle_deg += 360.0;
    1b9a:	20 e0       	ldi	r18, 0x00	; 0
    1b9c:	30 e0       	ldi	r19, 0x00	; 0
    1b9e:	44 eb       	ldi	r20, 0xB4	; 180
    1ba0:	53 e4       	ldi	r21, 0x43	; 67
    1ba2:	c7 01       	movw	r24, r14
    1ba4:	b6 01       	movw	r22, r12
    1ba6:	0e 94 9a 10 	call	0x2134	; 0x2134 <__addsf3>
    1baa:	6b 01       	movw	r12, r22
    1bac:	7c 01       	movw	r14, r24
	}
	AZIMUTH.total_average_angle = average_angle_deg * scale;// Store the scaled total average angle in AZIMUTH
    1bae:	62 2d       	mov	r22, r2
    1bb0:	70 e0       	ldi	r23, 0x00	; 0
    1bb2:	80 e0       	ldi	r24, 0x00	; 0
    1bb4:	90 e0       	ldi	r25, 0x00	; 0
    1bb6:	0e 94 47 12 	call	0x248e	; 0x248e <__floatsisf>
    1bba:	a7 01       	movw	r20, r14
    1bbc:	96 01       	movw	r18, r12
    1bbe:	0e 94 4a 14 	call	0x2894	; 0x2894 <__mulsf3>
    1bc2:	60 93 2c 38 	sts	0x382C, r22	; 0x80382c <AZIMUTH+0x1>
    1bc6:	70 93 2d 38 	sts	0x382D, r23	; 0x80382d <AZIMUTH+0x2>
    1bca:	80 93 2e 38 	sts	0x382E, r24	; 0x80382e <AZIMUTH+0x3>
    1bce:	90 93 2f 38 	sts	0x382F, r25	; 0x80382f <AZIMUTH+0x4>
}
    1bd2:	64 96       	adiw	r28, 0x14	; 20
    1bd4:	cd bf       	out	0x3d, r28	; 61
    1bd6:	de bf       	out	0x3e, r29	; 62
    1bd8:	df 91       	pop	r29
    1bda:	cf 91       	pop	r28
    1bdc:	1f 91       	pop	r17
    1bde:	0f 91       	pop	r16
    1be0:	ff 90       	pop	r15
    1be2:	ef 90       	pop	r14
    1be4:	df 90       	pop	r13
    1be6:	cf 90       	pop	r12
    1be8:	bf 90       	pop	r11
    1bea:	af 90       	pop	r10
    1bec:	9f 90       	pop	r9
    1bee:	8f 90       	pop	r8
    1bf0:	7f 90       	pop	r7
    1bf2:	6f 90       	pop	r6
    1bf4:	3f 90       	pop	r3
    1bf6:	2f 90       	pop	r2
    1bf8:	08 95       	ret

00001bfa <GPIO_init>:
 *  Author: Saulius
 */ 
 #include "Settings.h"

 void GPIO_init(){
	 CPU_CCP = CCP_IOREG_gc;
    1bfa:	88 ed       	ldi	r24, 0xD8	; 216
    1bfc:	84 bf       	out	0x34, r24	; 52
	 CLKCTRL.MCLKCTRLB = 0 << CLKCTRL_PEN_bp;
    1bfe:	10 92 61 00 	sts	0x0061, r1	; 0x800061 <daysInMonth+0x7f49f3>
	 while (CLKCTRL.MCLKSTATUS & CLKCTRL_SOSC_bm);
    1c02:	80 91 63 00 	lds	r24, 0x0063	; 0x800063 <daysInMonth+0x7f49f5>
    1c06:	80 fd       	sbrc	r24, 0
    1c08:	fc cf       	rjmp	.-8      	; 0x1c02 <GPIO_init+0x8>

	 PORTA.DIRSET = PIN4_bm | PIN5_bm | PIN6_bm| PIN7_bm;
    1c0a:	a0 e0       	ldi	r26, 0x00	; 0
    1c0c:	b4 e0       	ldi	r27, 0x04	; 4
    1c0e:	80 ef       	ldi	r24, 0xF0	; 240
    1c10:	11 96       	adiw	r26, 0x01	; 1
    1c12:	8c 93       	st	X, r24
    1c14:	11 97       	sbiw	r26, 0x01	; 1
	 PORTB.DIRSET = PIN0_bm | PIN2_bm; //Out RS485: XDIR, TX
    1c16:	e0 e2       	ldi	r30, 0x20	; 32
    1c18:	f4 e0       	ldi	r31, 0x04	; 4
    1c1a:	85 e0       	ldi	r24, 0x05	; 5
    1c1c:	81 83       	std	Z+1, r24	; 0x01
	 PORTB.DIRCLR = PIN3_bm; //In RS485: RX
    1c1e:	88 e0       	ldi	r24, 0x08	; 8
    1c20:	82 83       	std	Z+2, r24	; 0x02
	 PORTB.PIN0CTRL = PORT_PULLUPEN_bm; //pullup XDIR
    1c22:	80 8b       	std	Z+16, r24	; 0x10
	 PORTB.PIN2CTRL = PORT_PULLUPEN_bm; //pullup TX
    1c24:	82 8b       	std	Z+18, r24	; 0x12
	 PORTB.PIN3CTRL = PORT_PULLUPEN_bm; //pullup RX
    1c26:	83 8b       	std	Z+19, r24	; 0x13

	 PORTA.DIRCLR = PIN1_bm | PIN2_bm; //AIN1, AIN2 as ADC channels
    1c28:	86 e0       	ldi	r24, 0x06	; 6
    1c2a:	12 96       	adiw	r26, 0x02	; 2
    1c2c:	8c 93       	st	X, r24
    1c2e:	12 97       	sbiw	r26, 0x02	; 2
	 PORTA.PIN1CTRL = PORT_ISC_INPUT_DISABLE_gc /*| PORT_PULLUPEN_bm*/; //digital input buffer off
    1c30:	84 e0       	ldi	r24, 0x04	; 4
    1c32:	51 96       	adiw	r26, 0x11	; 17
    1c34:	8c 93       	st	X, r24
    1c36:	51 97       	sbiw	r26, 0x11	; 17
	 PORTA.PIN2CTRL = PORT_ISC_INPUT_DISABLE_gc /*| PORT_PULLUPEN_bm*/; //digital input buffer off
    1c38:	52 96       	adiw	r26, 0x12	; 18
    1c3a:	8c 93       	st	X, r24
    1c3c:	08 95       	ret

00001c3e <main>:
 * Created: 2024-10-11 21:00:42
 * Author : Saulius
 */ 
#include "Settings.h"
int main(void){
	GPIO_init();
    1c3e:	0e 94 fd 0d 	call	0x1bfa	; 0x1bfa <GPIO_init>
	ADC0_init();
    1c42:	0e 94 31 01 	call	0x262	; 0x262 <ADC0_init>
	USART0_init();
    1c46:	0e 94 69 10 	call	0x20d2	; 0x20d2 <USART0_init>
	RTC_init();
    1c4a:	0e 94 e6 0e 	call	0x1dcc	; 0x1dcc <RTC_init>
//float debuganswer = 0;
	sei();
    1c4e:	78 94       	sei
	while (1){

		ReadSensorsValues();
    1c50:	0e 94 82 0f 	call	0x1f04	; 0x1f04 <ReadSensorsValues>
		for (uint8_t i = 0; i<5; i++){
    1c54:	c0 e0       	ldi	r28, 0x00	; 0
    1c56:	04 c0       	rjmp	.+8      	; 0x1c60 <main+0x22>
			azel(i);
    1c58:	8c 2f       	mov	r24, r28
    1c5a:	0e 94 6d 06 	call	0xcda	; 0xcda <azel>
//float debuganswer = 0;
	sei();
	while (1){

		ReadSensorsValues();
		for (uint8_t i = 0; i<5; i++){
    1c5e:	cf 5f       	subi	r28, 0xFF	; 255
    1c60:	c5 30       	cpi	r28, 0x05	; 5
    1c62:	d0 f3       	brcs	.-12     	; 0x1c58 <main+0x1a>
			azel(i);
			//azimuth(i);
		}
		//azel(4);

		azimuth_average_angle(1);
    1c64:	81 e0       	ldi	r24, 0x01	; 1
    1c66:	0e 94 e5 0c 	call	0x19ca	; 0x19ca <azimuth_average_angle>

		//moving_average2();		
	/*	debuganswer = GetCoeficients(17);
	printf("koeficientas: %.5f\r\n", debuganswer);*/
	printf(" %4d-%02d-%02d %02d:%02d:%02d: ", currentTime.year,  currentTime.month, currentTime.day, currentTime.hours, currentTime.minutes, currentTime.seconds);
    1c6a:	ce e3       	ldi	r28, 0x3E	; 62
    1c6c:	d8 e3       	ldi	r29, 0x38	; 56
    1c6e:	68 81       	ld	r22, Y
    1c70:	59 81       	ldd	r21, Y+1	; 0x01
    1c72:	4a 81       	ldd	r20, Y+2	; 0x02
    1c74:	3b 81       	ldd	r19, Y+3	; 0x03
    1c76:	2c 81       	ldd	r18, Y+4	; 0x04
    1c78:	8d 81       	ldd	r24, Y+5	; 0x05
    1c7a:	9e 81       	ldd	r25, Y+6	; 0x06
    1c7c:	1f 92       	push	r1
    1c7e:	6f 93       	push	r22
    1c80:	1f 92       	push	r1
    1c82:	5f 93       	push	r21
    1c84:	1f 92       	push	r1
    1c86:	4f 93       	push	r20
    1c88:	1f 92       	push	r1
    1c8a:	3f 93       	push	r19
    1c8c:	1f 92       	push	r1
    1c8e:	2f 93       	push	r18
    1c90:	9f 93       	push	r25
    1c92:	8f 93       	push	r24
    1c94:	88 e0       	ldi	r24, 0x08	; 8
    1c96:	96 eb       	ldi	r25, 0xB6	; 182
    1c98:	9f 93       	push	r25
    1c9a:	8f 93       	push	r24
    1c9c:	0e 94 85 1a 	call	0x350a	; 0x350a <printf>
	printf("Az.: % 5.2f | El.: % 5.2f | Lv.: % 5d |", AZIMUTH.total_average_angle, fifth.top_angle, level());
    1ca0:	0e 94 5b 0f 	call	0x1eb6	; 0x1eb6 <level>
    1ca4:	e5 e4       	ldi	r30, 0x45	; 69
    1ca6:	f8 e3       	ldi	r31, 0x38	; 56
    1ca8:	66 81       	ldd	r22, Z+6	; 0x06
    1caa:	77 81       	ldd	r23, Z+7	; 0x07
    1cac:	a0 85       	ldd	r26, Z+8	; 0x08
    1cae:	b1 85       	ldd	r27, Z+9	; 0x09
    1cb0:	0b e2       	ldi	r16, 0x2B	; 43
    1cb2:	18 e3       	ldi	r17, 0x38	; 56
    1cb4:	f8 01       	movw	r30, r16
    1cb6:	21 81       	ldd	r18, Z+1	; 0x01
    1cb8:	32 81       	ldd	r19, Z+2	; 0x02
    1cba:	43 81       	ldd	r20, Z+3	; 0x03
    1cbc:	54 81       	ldd	r21, Z+4	; 0x04
    1cbe:	9f 93       	push	r25
    1cc0:	8f 93       	push	r24
    1cc2:	bf 93       	push	r27
    1cc4:	af 93       	push	r26
    1cc6:	7f 93       	push	r23
    1cc8:	6f 93       	push	r22
    1cca:	5f 93       	push	r21
    1ccc:	4f 93       	push	r20
    1cce:	3f 93       	push	r19
    1cd0:	2f 93       	push	r18
    1cd2:	88 e2       	ldi	r24, 0x28	; 40
    1cd4:	96 eb       	ldi	r25, 0xB6	; 182
    1cd6:	9f 93       	push	r25
    1cd8:	8f 93       	push	r24
    1cda:	0e 94 85 1a 	call	0x350a	; 0x350a <printf>

	solar_params.second = currentTime.seconds;
    1cde:	88 81       	ld	r24, Y
    1ce0:	e0 e0       	ldi	r30, 0x00	; 0
    1ce2:	f8 e3       	ldi	r31, 0x38	; 56
    1ce4:	90 e0       	ldi	r25, 0x00	; 0
    1ce6:	86 8b       	std	Z+22, r24	; 0x16
    1ce8:	97 8b       	std	Z+23, r25	; 0x17
	solar_params.minute = currentTime.minutes;
    1cea:	89 81       	ldd	r24, Y+1	; 0x01
    1cec:	90 e0       	ldi	r25, 0x00	; 0
    1cee:	84 8b       	std	Z+20, r24	; 0x14
    1cf0:	95 8b       	std	Z+21, r25	; 0x15
	solar_params.hour = currentTime.hours;
    1cf2:	8a 81       	ldd	r24, Y+2	; 0x02
    1cf4:	90 e0       	ldi	r25, 0x00	; 0
    1cf6:	82 8b       	std	Z+18, r24	; 0x12
    1cf8:	93 8b       	std	Z+19, r25	; 0x13
	solar_params.day = currentTime.day;
    1cfa:	8b 81       	ldd	r24, Y+3	; 0x03
    1cfc:	90 e0       	ldi	r25, 0x00	; 0
    1cfe:	80 8b       	std	Z+16, r24	; 0x10
    1d00:	91 8b       	std	Z+17, r25	; 0x11
	solar_params.month = currentTime.month;
    1d02:	8c 81       	ldd	r24, Y+4	; 0x04
    1d04:	90 e0       	ldi	r25, 0x00	; 0
    1d06:	86 87       	std	Z+14, r24	; 0x0e
    1d08:	97 87       	std	Z+15, r25	; 0x0f
	solar_params.year = currentTime.year;
    1d0a:	8d 81       	ldd	r24, Y+5	; 0x05
    1d0c:	9e 81       	ldd	r25, Y+6	; 0x06
    1d0e:	84 87       	std	Z+12, r24	; 0x0c
    1d10:	95 87       	std	Z+13, r25	; 0x0d

	calculate_solar_position(&solar_params, &ELEVATION.cosmos_angle, &AZIMUTH.cosmos_angle);
    1d12:	4a e3       	ldi	r20, 0x3A	; 58
    1d14:	58 e3       	ldi	r21, 0x38	; 56
    1d16:	67 e2       	ldi	r22, 0x27	; 39
    1d18:	78 e3       	ldi	r23, 0x38	; 56
    1d1a:	cf 01       	movw	r24, r30
    1d1c:	0e 94 24 04 	call	0x848	; 0x848 <calculate_solar_position>

	printf("AzC.: % 5.2f | ElC.: % 5.2f\r\n", AZIMUTH.cosmos_angle, ELEVATION.cosmos_angle);
    1d20:	e8 e1       	ldi	r30, 0x18	; 24
    1d22:	f8 e3       	ldi	r31, 0x38	; 56
    1d24:	82 89       	ldd	r24, Z+18	; 0x12
    1d26:	8f 93       	push	r24
    1d28:	81 89       	ldd	r24, Z+17	; 0x11
    1d2a:	8f 93       	push	r24
    1d2c:	80 89       	ldd	r24, Z+16	; 0x10
    1d2e:	8f 93       	push	r24
    1d30:	87 85       	ldd	r24, Z+15	; 0x0f
    1d32:	8f 93       	push	r24
    1d34:	f8 01       	movw	r30, r16
    1d36:	82 89       	ldd	r24, Z+18	; 0x12
    1d38:	8f 93       	push	r24
    1d3a:	81 89       	ldd	r24, Z+17	; 0x11
    1d3c:	8f 93       	push	r24
    1d3e:	80 89       	ldd	r24, Z+16	; 0x10
    1d40:	8f 93       	push	r24
    1d42:	87 85       	ldd	r24, Z+15	; 0x0f
    1d44:	8f 93       	push	r24
    1d46:	80 e5       	ldi	r24, 0x50	; 80
    1d48:	96 eb       	ldi	r25, 0xB6	; 182
    1d4a:	9f 93       	push	r25
    1d4c:	8f 93       	push	r24
    1d4e:	0e 94 85 1a 	call	0x350a	; 0x350a <printf>
	}
    1d52:	8d b7       	in	r24, 0x3d	; 61
    1d54:	9e b7       	in	r25, 0x3e	; 62
    1d56:	84 96       	adiw	r24, 0x24	; 36
    1d58:	8d bf       	out	0x3d, r24	; 61
    1d5a:	9e bf       	out	0x3e, r25	; 62
    1d5c:	79 cf       	rjmp	.-270    	; 0x1c50 <main+0x12>

00001d5e <isLeapYear>:
volatile Time currentTime = {20, 03, 15, 21, 11, 2024}; // Pradinë data ir laikas
// Mënesiø dienø kiekis
const uint8_t daysInMonth[] = {31, 28, 31, 30, 31, 30, 31, 31, 30, 31, 30, 31};

// Tikrinimas, ar metai yra keliamieji
uint8_t isLeapYear(uint16_t year) {
    1d5e:	ac 01       	movw	r20, r24
	return (year % 4 == 0 && year % 100 != 0) || (year % 400 == 0);
    1d60:	83 70       	andi	r24, 0x03	; 3
    1d62:	99 27       	eor	r25, r25
    1d64:	89 2b       	or	r24, r25
    1d66:	a1 f4       	brne	.+40     	; 0x1d90 <isLeapYear+0x32>
    1d68:	9a 01       	movw	r18, r20
    1d6a:	36 95       	lsr	r19
    1d6c:	27 95       	ror	r18
    1d6e:	36 95       	lsr	r19
    1d70:	27 95       	ror	r18
    1d72:	ab e7       	ldi	r26, 0x7B	; 123
    1d74:	b4 e1       	ldi	r27, 0x14	; 20
    1d76:	0e 94 07 19 	call	0x320e	; 0x320e <__umulhisi3>
    1d7a:	96 95       	lsr	r25
    1d7c:	87 95       	ror	r24
    1d7e:	64 e6       	ldi	r22, 0x64	; 100
    1d80:	68 9f       	mul	r22, r24
    1d82:	90 01       	movw	r18, r0
    1d84:	69 9f       	mul	r22, r25
    1d86:	30 0d       	add	r19, r0
    1d88:	11 24       	eor	r1, r1
    1d8a:	42 17       	cp	r20, r18
    1d8c:	53 07       	cpc	r21, r19
    1d8e:	d1 f4       	brne	.+52     	; 0x1dc4 <isLeapYear+0x66>
    1d90:	9a 01       	movw	r18, r20
    1d92:	32 95       	swap	r19
    1d94:	22 95       	swap	r18
    1d96:	2f 70       	andi	r18, 0x0F	; 15
    1d98:	23 27       	eor	r18, r19
    1d9a:	3f 70       	andi	r19, 0x0F	; 15
    1d9c:	23 27       	eor	r18, r19
    1d9e:	ae e3       	ldi	r26, 0x3E	; 62
    1da0:	ba e0       	ldi	r27, 0x0A	; 10
    1da2:	0e 94 07 19 	call	0x320e	; 0x320e <__umulhisi3>
    1da6:	20 e9       	ldi	r18, 0x90	; 144
    1da8:	31 e0       	ldi	r19, 0x01	; 1
    1daa:	bc 01       	movw	r22, r24
    1dac:	62 9f       	mul	r22, r18
    1dae:	c0 01       	movw	r24, r0
    1db0:	63 9f       	mul	r22, r19
    1db2:	90 0d       	add	r25, r0
    1db4:	72 9f       	mul	r23, r18
    1db6:	90 0d       	add	r25, r0
    1db8:	11 24       	eor	r1, r1
    1dba:	48 17       	cp	r20, r24
    1dbc:	59 07       	cpc	r21, r25
    1dbe:	21 f4       	brne	.+8      	; 0x1dc8 <isLeapYear+0x6a>
    1dc0:	81 e0       	ldi	r24, 0x01	; 1
    1dc2:	08 95       	ret
    1dc4:	81 e0       	ldi	r24, 0x01	; 1
    1dc6:	08 95       	ret
    1dc8:	80 e0       	ldi	r24, 0x00	; 0
}
    1dca:	08 95       	ret

00001dcc <RTC_init>:

// RTC inicializavimas
void RTC_init() {
	 while (RTC.STATUS > 0); //wait until RTC synchronyze
    1dcc:	80 91 41 01 	lds	r24, 0x0141	; 0x800141 <daysInMonth+0x7f4ad3>
    1dd0:	81 11       	cpse	r24, r1
    1dd2:	fc cf       	rjmp	.-8      	; 0x1dcc <RTC_init>
	 RTC.CLKSEL = RTC_CLKSEL_INT32K_gc; //32768khz
    1dd4:	e0 e4       	ldi	r30, 0x40	; 64
    1dd6:	f1 e0       	ldi	r31, 0x01	; 1
    1dd8:	17 82       	std	Z+7, r1	; 0x07
	 RTC.CTRLA = RTC_RTCEN_bm | RTC_PRESCALER_DIV1_gc; // Ájungti RTC
    1dda:	81 e0       	ldi	r24, 0x01	; 1
    1ddc:	80 83       	st	Z, r24
	 RTC.INTCTRL = 0 << RTC_CMP_bp    /* Compare Match Interrupt enable: disabled */
    1dde:	82 83       	std	Z+2, r24	; 0x02
	 | 1 << RTC_OVF_bp;
	 RTC.PER = 32767;
    1de0:	8f ef       	ldi	r24, 0xFF	; 255
    1de2:	9f e7       	ldi	r25, 0x7F	; 127
    1de4:	82 87       	std	Z+10, r24	; 0x0a
    1de6:	93 87       	std	Z+11, r25	; 0x0b
    1de8:	08 95       	ret

00001dea <__vector_3>:
}

// RTC pertraukimo tvarkytuvas
ISR(RTC_CNT_vect) {
    1dea:	1f 92       	push	r1
    1dec:	0f 92       	push	r0
    1dee:	0f b6       	in	r0, 0x3f	; 63
    1df0:	0f 92       	push	r0
    1df2:	11 24       	eor	r1, r1
    1df4:	2f 93       	push	r18
    1df6:	3f 93       	push	r19
    1df8:	4f 93       	push	r20
    1dfa:	5f 93       	push	r21
    1dfc:	6f 93       	push	r22
    1dfe:	7f 93       	push	r23
    1e00:	8f 93       	push	r24
    1e02:	9f 93       	push	r25
    1e04:	af 93       	push	r26
    1e06:	bf 93       	push	r27
    1e08:	cf 93       	push	r28
    1e0a:	ef 93       	push	r30
    1e0c:	ff 93       	push	r31
	RTC.INTFLAGS = RTC_OVF_bm; // Iðvalyti pertraukimo vëliavëlæ
    1e0e:	81 e0       	ldi	r24, 0x01	; 1
    1e10:	80 93 43 01 	sts	0x0143, r24	; 0x800143 <daysInMonth+0x7f4ad5>

	// Atlikti laiko skaièiavimus
	currentTime.seconds++;
    1e14:	ee e3       	ldi	r30, 0x3E	; 62
    1e16:	f8 e3       	ldi	r31, 0x38	; 56
    1e18:	80 81       	ld	r24, Z
    1e1a:	8f 5f       	subi	r24, 0xFF	; 255
    1e1c:	80 83       	st	Z, r24
	if (currentTime.seconds >= 60) {
    1e1e:	80 81       	ld	r24, Z
    1e20:	8c 33       	cpi	r24, 0x3C	; 60
    1e22:	b8 f1       	brcs	.+110    	; 0x1e92 <__vector_3+0xa8>
		currentTime.seconds = 0;
    1e24:	10 82       	st	Z, r1
		currentTime.minutes++;
    1e26:	81 81       	ldd	r24, Z+1	; 0x01
    1e28:	8f 5f       	subi	r24, 0xFF	; 255
    1e2a:	81 83       	std	Z+1, r24	; 0x01
		if (currentTime.minutes >= 60) {
    1e2c:	81 81       	ldd	r24, Z+1	; 0x01
    1e2e:	8c 33       	cpi	r24, 0x3C	; 60
    1e30:	80 f1       	brcs	.+96     	; 0x1e92 <__vector_3+0xa8>
			currentTime.minutes = 0;
    1e32:	11 82       	std	Z+1, r1	; 0x01
			currentTime.hours++;
    1e34:	82 81       	ldd	r24, Z+2	; 0x02
    1e36:	8f 5f       	subi	r24, 0xFF	; 255
    1e38:	82 83       	std	Z+2, r24	; 0x02
			if (currentTime.hours >= 24) {
    1e3a:	82 81       	ldd	r24, Z+2	; 0x02
    1e3c:	88 31       	cpi	r24, 0x18	; 24
    1e3e:	48 f1       	brcs	.+82     	; 0x1e92 <__vector_3+0xa8>
				currentTime.hours = 0;
    1e40:	12 82       	std	Z+2, r1	; 0x02
				currentTime.day++;
    1e42:	83 81       	ldd	r24, Z+3	; 0x03
    1e44:	8f 5f       	subi	r24, 0xFF	; 255
    1e46:	83 83       	std	Z+3, r24	; 0x03
				
				uint8_t daysThisMonth = daysInMonth[currentTime.month - 1];
    1e48:	a4 81       	ldd	r26, Z+4	; 0x04
    1e4a:	b0 e0       	ldi	r27, 0x00	; 0
    1e4c:	a3 59       	subi	r26, 0x93	; 147
    1e4e:	b9 44       	sbci	r27, 0x49	; 73
    1e50:	cc 91       	ld	r28, X
				if (currentTime.month == 2 && isLeapYear(currentTime.year)) {
    1e52:	84 81       	ldd	r24, Z+4	; 0x04
    1e54:	82 30       	cpi	r24, 0x02	; 2
    1e56:	41 f4       	brne	.+16     	; 0x1e68 <__vector_3+0x7e>
    1e58:	80 91 43 38 	lds	r24, 0x3843	; 0x803843 <currentTime+0x5>
    1e5c:	90 91 44 38 	lds	r25, 0x3844	; 0x803844 <currentTime+0x6>
    1e60:	0e 94 af 0e 	call	0x1d5e	; 0x1d5e <isLeapYear>
    1e64:	81 11       	cpse	r24, r1
					daysThisMonth = 29;
    1e66:	cd e1       	ldi	r28, 0x1D	; 29
				}

				if (currentTime.day > daysThisMonth) {
    1e68:	80 91 41 38 	lds	r24, 0x3841	; 0x803841 <currentTime+0x3>
    1e6c:	c8 17       	cp	r28, r24
    1e6e:	88 f4       	brcc	.+34     	; 0x1e92 <__vector_3+0xa8>
					currentTime.day = 1;
    1e70:	ee e3       	ldi	r30, 0x3E	; 62
    1e72:	f8 e3       	ldi	r31, 0x38	; 56
    1e74:	81 e0       	ldi	r24, 0x01	; 1
    1e76:	83 83       	std	Z+3, r24	; 0x03
					currentTime.month++;
    1e78:	84 81       	ldd	r24, Z+4	; 0x04
    1e7a:	8f 5f       	subi	r24, 0xFF	; 255
    1e7c:	84 83       	std	Z+4, r24	; 0x04
					if (currentTime.month > 12) {
    1e7e:	84 81       	ldd	r24, Z+4	; 0x04
    1e80:	8d 30       	cpi	r24, 0x0D	; 13
    1e82:	38 f0       	brcs	.+14     	; 0x1e92 <__vector_3+0xa8>
						currentTime.month = 1;
    1e84:	81 e0       	ldi	r24, 0x01	; 1
    1e86:	84 83       	std	Z+4, r24	; 0x04
						currentTime.year++;
    1e88:	85 81       	ldd	r24, Z+5	; 0x05
    1e8a:	96 81       	ldd	r25, Z+6	; 0x06
    1e8c:	01 96       	adiw	r24, 0x01	; 1
    1e8e:	85 83       	std	Z+5, r24	; 0x05
    1e90:	96 83       	std	Z+6, r25	; 0x06
					}
				}
			}
		}
	}
    1e92:	ff 91       	pop	r31
    1e94:	ef 91       	pop	r30
    1e96:	cf 91       	pop	r28
    1e98:	bf 91       	pop	r27
    1e9a:	af 91       	pop	r26
    1e9c:	9f 91       	pop	r25
    1e9e:	8f 91       	pop	r24
    1ea0:	7f 91       	pop	r23
    1ea2:	6f 91       	pop	r22
    1ea4:	5f 91       	pop	r21
    1ea6:	4f 91       	pop	r20
    1ea8:	3f 91       	pop	r19
    1eaa:	2f 91       	pop	r18
    1eac:	0f 90       	pop	r0
    1eae:	0f be       	out	0x3f, r0	; 63
    1eb0:	0f 90       	pop	r0
    1eb2:	1f 90       	pop	r1
    1eb4:	18 95       	reti

00001eb6 <level>:
 *  Author: Saulius
 */ 
#include "Settings.h"
#include "Sensor32Var.h"

uint16_t level(){
    1eb6:	0f 93       	push	r16
    1eb8:	1f 93       	push	r17
	uint32_t AverageLevel = 0;
	for(uint8_t i = 0; i < TOTAL_SENSORS; i++){ //calculating average light level of 32 sensors
    1eba:	90 e0       	ldi	r25, 0x00	; 0
 */ 
#include "Settings.h"
#include "Sensor32Var.h"

uint16_t level(){
	uint32_t AverageLevel = 0;
    1ebc:	00 e0       	ldi	r16, 0x00	; 0
    1ebe:	10 e0       	ldi	r17, 0x00	; 0
    1ec0:	98 01       	movw	r18, r16
	for(uint8_t i = 0; i < TOTAL_SENSORS; i++){ //calculating average light level of 32 sensors
    1ec2:	11 c0       	rjmp	.+34     	; 0x1ee6 <level+0x30>
		AverageLevel += sensor_data[i];
    1ec4:	e9 2f       	mov	r30, r25
    1ec6:	f0 e0       	ldi	r31, 0x00	; 0
    1ec8:	ee 0f       	add	r30, r30
    1eca:	ff 1f       	adc	r31, r31
    1ecc:	e6 58       	subi	r30, 0x86	; 134
    1ece:	f6 4c       	sbci	r31, 0xC6	; 198
    1ed0:	40 81       	ld	r20, Z
    1ed2:	51 81       	ldd	r21, Z+1	; 0x01
    1ed4:	05 2e       	mov	r0, r21
    1ed6:	00 0c       	add	r0, r0
    1ed8:	66 0b       	sbc	r22, r22
    1eda:	77 0b       	sbc	r23, r23
    1edc:	04 0f       	add	r16, r20
    1ede:	15 1f       	adc	r17, r21
    1ee0:	26 1f       	adc	r18, r22
    1ee2:	37 1f       	adc	r19, r23
#include "Settings.h"
#include "Sensor32Var.h"

uint16_t level(){
	uint32_t AverageLevel = 0;
	for(uint8_t i = 0; i < TOTAL_SENSORS; i++){ //calculating average light level of 32 sensors
    1ee4:	9f 5f       	subi	r25, 0xFF	; 255
    1ee6:	90 32       	cpi	r25, 0x20	; 32
    1ee8:	68 f3       	brcs	.-38     	; 0x1ec4 <level+0xe>
		AverageLevel += sensor_data[i];
	}
	return AverageLevel/TOTAL_SENSORS;
    1eea:	d9 01       	movw	r26, r18
    1eec:	c8 01       	movw	r24, r16
    1eee:	68 94       	set
    1ef0:	14 f8       	bld	r1, 4
    1ef2:	b6 95       	lsr	r27
    1ef4:	a7 95       	ror	r26
    1ef6:	97 95       	ror	r25
    1ef8:	87 95       	ror	r24
    1efa:	16 94       	lsr	r1
    1efc:	d1 f7       	brne	.-12     	; 0x1ef2 <level+0x3c>
}
    1efe:	1f 91       	pop	r17
    1f00:	0f 91       	pop	r16
    1f02:	08 95       	ret

00001f04 <ReadSensorsValues>:
			N_x[i] = a[i] * log10(sensor_data[i]) + b[i];
			sensor_data[i] = (4095-sensor_data[i]) *  N_x[i];
		}
}*/

void ReadSensorsValues(){ // reading all voltages from 32 sensor
    1f04:	3f 92       	push	r3
    1f06:	4f 92       	push	r4
    1f08:	5f 92       	push	r5
    1f0a:	6f 92       	push	r6
    1f0c:	7f 92       	push	r7
    1f0e:	8f 92       	push	r8
    1f10:	9f 92       	push	r9
    1f12:	af 92       	push	r10
    1f14:	bf 92       	push	r11
    1f16:	cf 92       	push	r12
    1f18:	df 92       	push	r13
    1f1a:	ef 92       	push	r14
    1f1c:	ff 92       	push	r15
    1f1e:	0f 93       	push	r16
    1f20:	1f 93       	push	r17
    1f22:	cf 93       	push	r28
    1f24:	df 93       	push	r29
    1f26:	cd b7       	in	r28, 0x3d	; 61
    1f28:	de b7       	in	r29, 0x3e	; 62
    1f2a:	26 97       	sbiw	r28, 0x06	; 6
    1f2c:	cd bf       	out	0x3d, r28	; 61
    1f2e:	de bf       	out	0x3e, r29	; 62
	int32_t min = 4096;
	for (uint8_t i = 0; i < 16; i++) {
    1f30:	31 2c       	mov	r3, r1
			sensor_data[i] = (4095-sensor_data[i]) *  N_x[i];
		}
}*/

void ReadSensorsValues(){ // reading all voltages from 32 sensor
	int32_t min = 4096;
    1f32:	e1 2c       	mov	r14, r1
    1f34:	10 e1       	ldi	r17, 0x10	; 16
    1f36:	f1 2e       	mov	r15, r17
    1f38:	00 e0       	ldi	r16, 0x00	; 0
    1f3a:	10 e0       	ldi	r17, 0x00	; 0
    1f3c:	e9 82       	std	Y+1, r14	; 0x01
    1f3e:	fa 82       	std	Y+2, r15	; 0x02
    1f40:	0b 83       	std	Y+3, r16	; 0x03
    1f42:	1c 83       	std	Y+4, r17	; 0x04
	for (uint8_t i = 0; i < 16; i++) {
    1f44:	92 c0       	rjmp	.+292    	; 0x206a <ReadSensorsValues+0x166>
		int32_t reader = 0,
				sum = 0,
				sumb = 0,
				readerb = 0;
		PORTA.OUT = i*16;
    1f46:	83 2d       	mov	r24, r3
    1f48:	82 95       	swap	r24
    1f4a:	80 7f       	andi	r24, 0xF0	; 240
    1f4c:	80 93 04 04 	sts	0x0404, r24	; 0x800404 <daysInMonth+0x7f4d96>
	#else
		//round up by default
		__ticks_dc = (uint32_t)(ceil(fabs(__tmp)));
	#endif

	__builtin_avr_delay_cycles(__ticks_dc);
    1f50:	87 ee       	ldi	r24, 0xE7	; 231
    1f52:	93 e0       	ldi	r25, 0x03	; 3
    1f54:	01 97       	sbiw	r24, 0x01	; 1
    1f56:	f1 f7       	brne	.-4      	; 0x1f54 <ReadSensorsValues+0x50>
    1f58:	00 c0       	rjmp	.+0      	; 0x1f5a <ReadSensorsValues+0x56>
    1f5a:	00 00       	nop
		_delay_us(200);
		//_delay_ms(10);
		for (uint32_t a= 0; a< 50000; a++){
    1f5c:	c1 2c       	mov	r12, r1
    1f5e:	d1 2c       	mov	r13, r1
    1f60:	76 01       	movw	r14, r12
void ReadSensorsValues(){ // reading all voltages from 32 sensor
	int32_t min = 4096;
	for (uint8_t i = 0; i < 16; i++) {
		int32_t reader = 0,
				sum = 0,
				sumb = 0,
    1f62:	81 2c       	mov	r8, r1
    1f64:	91 2c       	mov	r9, r1
    1f66:	54 01       	movw	r10, r8

void ReadSensorsValues(){ // reading all voltages from 32 sensor
	int32_t min = 4096;
	for (uint8_t i = 0; i < 16; i++) {
		int32_t reader = 0,
				sum = 0,
    1f68:	41 2c       	mov	r4, r1
    1f6a:	51 2c       	mov	r5, r1
    1f6c:	32 01       	movw	r6, r4
				sumb = 0,
				readerb = 0;
		PORTA.OUT = i*16;
		_delay_us(200);
		//_delay_ms(10);
		for (uint32_t a= 0; a< 50000; a++){
    1f6e:	1b c0       	rjmp	.+54     	; 0x1fa6 <ReadSensorsValues+0xa2>
			reader = /*2048+*/(int16_t)ADC0_Read(ADC_MUX0); //Read
    1f70:	82 e0       	ldi	r24, 0x02	; 2
    1f72:	0e 94 49 01 	call	0x292	; 0x292 <ADC0_Read>
    1f76:	09 2e       	mov	r0, r25
    1f78:	00 0c       	add	r0, r0
    1f7a:	aa 0b       	sbc	r26, r26
    1f7c:	bb 0b       	sbc	r27, r27
			sum += reader;
    1f7e:	48 0e       	add	r4, r24
    1f80:	59 1e       	adc	r5, r25
    1f82:	6a 1e       	adc	r6, r26
    1f84:	7b 1e       	adc	r7, r27
			//_delay_loop_2(a+1);
			readerb = /*2048+*/(int16_t)ADC0_Read(ADC_MUX1);
    1f86:	81 e0       	ldi	r24, 0x01	; 1
    1f88:	0e 94 49 01 	call	0x292	; 0x292 <ADC0_Read>
    1f8c:	09 2e       	mov	r0, r25
    1f8e:	00 0c       	add	r0, r0
    1f90:	aa 0b       	sbc	r26, r26
    1f92:	bb 0b       	sbc	r27, r27
			sumb += readerb;
    1f94:	88 0e       	add	r8, r24
    1f96:	99 1e       	adc	r9, r25
    1f98:	aa 1e       	adc	r10, r26
    1f9a:	bb 1e       	adc	r11, r27
				sumb = 0,
				readerb = 0;
		PORTA.OUT = i*16;
		_delay_us(200);
		//_delay_ms(10);
		for (uint32_t a= 0; a< 50000; a++){
    1f9c:	9f ef       	ldi	r25, 0xFF	; 255
    1f9e:	c9 1a       	sub	r12, r25
    1fa0:	d9 0a       	sbc	r13, r25
    1fa2:	e9 0a       	sbc	r14, r25
    1fa4:	f9 0a       	sbc	r15, r25
    1fa6:	a0 e5       	ldi	r26, 0x50	; 80
    1fa8:	ca 16       	cp	r12, r26
    1faa:	a3 ec       	ldi	r26, 0xC3	; 195
    1fac:	da 06       	cpc	r13, r26
    1fae:	e1 04       	cpc	r14, r1
    1fb0:	f1 04       	cpc	r15, r1
    1fb2:	f0 f2       	brcs	.-68     	; 0x1f70 <ReadSensorsValues+0x6c>
			//_delay_loop_2(a+1);
			readerb = /*2048+*/(int16_t)ADC0_Read(ADC_MUX1);
			sumb += readerb;
			//_delay_loop_2(a+1);
		}
		sensor_data[sensor_placement0[i]] = (int32_t)sum/50000;
    1fb4:	e3 2c       	mov	r14, r3
    1fb6:	f1 2c       	mov	r15, r1
    1fb8:	ed 82       	std	Y+5, r14	; 0x05
    1fba:	fe 82       	std	Y+6, r15	; 0x06
    1fbc:	f7 01       	movw	r30, r14
    1fbe:	e5 56       	subi	r30, 0x65	; 101
    1fc0:	f7 4c       	sbci	r31, 0xC7	; 199
    1fc2:	00 81       	ld	r16, Z
    1fc4:	10 e0       	ldi	r17, 0x00	; 0
    1fc6:	0f 2e       	mov	r0, r31
    1fc8:	f0 e5       	ldi	r31, 0x50	; 80
    1fca:	cf 2e       	mov	r12, r31
    1fcc:	f3 ec       	ldi	r31, 0xC3	; 195
    1fce:	df 2e       	mov	r13, r31
    1fd0:	e1 2c       	mov	r14, r1
    1fd2:	f1 2c       	mov	r15, r1
    1fd4:	f0 2d       	mov	r31, r0
    1fd6:	c3 01       	movw	r24, r6
    1fd8:	b2 01       	movw	r22, r4
    1fda:	a7 01       	movw	r20, r14
    1fdc:	96 01       	movw	r18, r12
    1fde:	0e 94 e8 18 	call	0x31d0	; 0x31d0 <__divmodsi4>
    1fe2:	00 0f       	add	r16, r16
    1fe4:	11 1f       	adc	r17, r17
    1fe6:	06 58       	subi	r16, 0x86	; 134
    1fe8:	16 4c       	sbci	r17, 0xC6	; 198
    1fea:	d8 01       	movw	r26, r16
    1fec:	2d 93       	st	X+, r18
    1fee:	3c 93       	st	X, r19
		sensor_data[sensor_placement1[i]] = (int32_t)sumb/50000;	
    1ff0:	ed 81       	ldd	r30, Y+5	; 0x05
    1ff2:	fe 81       	ldd	r31, Y+6	; 0x06
    1ff4:	e5 57       	subi	r30, 0x75	; 117
    1ff6:	f7 4c       	sbci	r31, 0xC7	; 199
    1ff8:	f0 81       	ld	r31, Z
    1ffa:	2f 2f       	mov	r18, r31
    1ffc:	30 e0       	ldi	r19, 0x00	; 0
    1ffe:	2d 83       	std	Y+5, r18	; 0x05
    2000:	3e 83       	std	Y+6, r19	; 0x06
    2002:	c5 01       	movw	r24, r10
    2004:	b4 01       	movw	r22, r8
    2006:	a7 01       	movw	r20, r14
    2008:	96 01       	movw	r18, r12
    200a:	0e 94 e8 18 	call	0x31d0	; 0x31d0 <__divmodsi4>
    200e:	ed 80       	ldd	r14, Y+5	; 0x05
    2010:	fe 80       	ldd	r15, Y+6	; 0x06
    2012:	ee 0c       	add	r14, r14
    2014:	ff 1c       	adc	r15, r15
    2016:	c7 01       	movw	r24, r14
    2018:	86 58       	subi	r24, 0x86	; 134
    201a:	96 4c       	sbci	r25, 0xC6	; 198
    201c:	dc 01       	movw	r26, r24
    201e:	2d 93       	st	X+, r18
    2020:	3c 93       	st	X, r19
		if(sensor_data[sensor_placement0[i]] < min )
    2022:	f8 01       	movw	r30, r16
    2024:	80 81       	ld	r24, Z
    2026:	91 81       	ldd	r25, Z+1	; 0x01
    2028:	09 2e       	mov	r0, r25
    202a:	00 0c       	add	r0, r0
    202c:	aa 0b       	sbc	r26, r26
    202e:	bb 0b       	sbc	r27, r27
    2030:	e9 80       	ldd	r14, Y+1	; 0x01
    2032:	fa 80       	ldd	r15, Y+2	; 0x02
    2034:	0b 81       	ldd	r16, Y+3	; 0x03
    2036:	1c 81       	ldd	r17, Y+4	; 0x04
    2038:	8e 15       	cp	r24, r14
    203a:	9f 05       	cpc	r25, r15
    203c:	a0 07       	cpc	r26, r16
    203e:	b1 07       	cpc	r27, r17
    2040:	14 f0       	brlt	.+4      	; 0x2046 <ReadSensorsValues+0x142>
    2042:	d8 01       	movw	r26, r16
    2044:	c7 01       	movw	r24, r14
		min = sensor_data[sensor_placement0[i]];
		if(sensor_data[sensor_placement1[i]] < min )
    2046:	79 01       	movw	r14, r18
    2048:	33 0f       	add	r19, r19
    204a:	00 0b       	sbc	r16, r16
    204c:	11 0b       	sbc	r17, r17
    204e:	e9 82       	std	Y+1, r14	; 0x01
    2050:	fa 82       	std	Y+2, r15	; 0x02
    2052:	0b 83       	std	Y+3, r16	; 0x03
    2054:	1c 83       	std	Y+4, r17	; 0x04
    2056:	e8 16       	cp	r14, r24
    2058:	f9 06       	cpc	r15, r25
    205a:	0a 07       	cpc	r16, r26
    205c:	1b 07       	cpc	r17, r27
    205e:	24 f0       	brlt	.+8      	; 0x2068 <ReadSensorsValues+0x164>
    2060:	89 83       	std	Y+1, r24	; 0x01
    2062:	9a 83       	std	Y+2, r25	; 0x02
    2064:	ab 83       	std	Y+3, r26	; 0x03
    2066:	bc 83       	std	Y+4, r27	; 0x04
		}
}*/

void ReadSensorsValues(){ // reading all voltages from 32 sensor
	int32_t min = 4096;
	for (uint8_t i = 0; i < 16; i++) {
    2068:	33 94       	inc	r3
    206a:	0f 2e       	mov	r0, r31
    206c:	ff e0       	ldi	r31, 0x0F	; 15
    206e:	ff 2e       	mov	r15, r31
    2070:	f0 2d       	mov	r31, r0
    2072:	f3 14       	cp	r15, r3
    2074:	08 f0       	brcs	.+2      	; 0x2078 <ReadSensorsValues+0x174>
    2076:	67 cf       	rjmp	.-306    	; 0x1f46 <ReadSensorsValues+0x42>
    2078:	20 e0       	ldi	r18, 0x00	; 0
    207a:	14 c0       	rjmp	.+40     	; 0x20a4 <ReadSensorsValues+0x1a0>
		if(sensor_data[sensor_placement1[i]] < min )
		min = sensor_data[sensor_placement1[i]];

	}
	for (uint8_t a= 0; a<TOTAL_SENSORS;a++){
		sensor_data[a] += abs(min);
    207c:	e2 2f       	mov	r30, r18
    207e:	f0 e0       	ldi	r31, 0x00	; 0
    2080:	89 81       	ldd	r24, Y+1	; 0x01
    2082:	9a 81       	ldd	r25, Y+2	; 0x02
    2084:	99 23       	and	r25, r25
    2086:	1c f4       	brge	.+6      	; 0x208e <ReadSensorsValues+0x18a>
    2088:	91 95       	neg	r25
    208a:	81 95       	neg	r24
    208c:	91 09       	sbc	r25, r1
    208e:	ee 0f       	add	r30, r30
    2090:	ff 1f       	adc	r31, r31
    2092:	e6 58       	subi	r30, 0x86	; 134
    2094:	f6 4c       	sbci	r31, 0xC6	; 198
    2096:	40 81       	ld	r20, Z
    2098:	51 81       	ldd	r21, Z+1	; 0x01
    209a:	84 0f       	add	r24, r20
    209c:	95 1f       	adc	r25, r21
    209e:	80 83       	st	Z, r24
    20a0:	91 83       	std	Z+1, r25	; 0x01
		min = sensor_data[sensor_placement0[i]];
		if(sensor_data[sensor_placement1[i]] < min )
		min = sensor_data[sensor_placement1[i]];

	}
	for (uint8_t a= 0; a<TOTAL_SENSORS;a++){
    20a2:	2f 5f       	subi	r18, 0xFF	; 255
    20a4:	20 32       	cpi	r18, 0x20	; 32
    20a6:	50 f3       	brcs	.-44     	; 0x207c <ReadSensorsValues+0x178>
		sensor_data[a] += abs(min);
	}
}
    20a8:	26 96       	adiw	r28, 0x06	; 6
    20aa:	cd bf       	out	0x3d, r28	; 61
    20ac:	de bf       	out	0x3e, r29	; 62
    20ae:	df 91       	pop	r29
    20b0:	cf 91       	pop	r28
    20b2:	1f 91       	pop	r17
    20b4:	0f 91       	pop	r16
    20b6:	ff 90       	pop	r15
    20b8:	ef 90       	pop	r14
    20ba:	df 90       	pop	r13
    20bc:	cf 90       	pop	r12
    20be:	bf 90       	pop	r11
    20c0:	af 90       	pop	r10
    20c2:	9f 90       	pop	r9
    20c4:	8f 90       	pop	r8
    20c6:	7f 90       	pop	r7
    20c8:	6f 90       	pop	r6
    20ca:	5f 90       	pop	r5
    20cc:	4f 90       	pop	r4
    20ce:	3f 90       	pop	r3
    20d0:	08 95       	ret

000020d2 <USART0_init>:
  #include "Settings.h"

  static FILE USART_stream = FDEV_SETUP_STREAM(USART0_printChar, NULL, _FDEV_SETUP_WRITE);

  void USART0_init(){
	USART0.CTRLA = USART_RS485_bm; //turn on RS485 driver controll (ST485EBDR)
    20d2:	e0 e0       	ldi	r30, 0x00	; 0
    20d4:	f8 e0       	ldi	r31, 0x08	; 8
    20d6:	81 e0       	ldi	r24, 0x01	; 1
    20d8:	85 83       	std	Z+5, r24	; 0x05
	USART0.BAUD = (uint16_t)USART0_BAUD_RATE(115200);//baud rate 115200bps
    20da:	8d e6       	ldi	r24, 0x6D	; 109
    20dc:	95 e0       	ldi	r25, 0x05	; 5
    20de:	80 87       	std	Z+8, r24	; 0x08
    20e0:	91 87       	std	Z+9, r25	; 0x09
	USART0.CTRLB = USART_RXEN_bm | USART_TXEN_bm | USART_RXMODE_CLK2X_gc; //receiver, transmitter enabled double speed
    20e2:	82 ec       	ldi	r24, 0xC2	; 194
    20e4:	86 83       	std	Z+6, r24	; 0x06
	USART0.CTRLC = USART_CMODE_ASYNCHRONOUS_gc | USART_CHSIZE_8BIT_gc | USART_PMODE_DISABLED_gc | USART_SBMODE_1BIT_gc; //asinch, 8b character, no parity, stop 1 b
    20e6:	83 e0       	ldi	r24, 0x03	; 3
    20e8:	87 83       	std	Z+7, r24	; 0x07
	stdout = &USART_stream;
    20ea:	8b e3       	ldi	r24, 0x3B	; 59
    20ec:	99 e3       	ldi	r25, 0x39	; 57
    20ee:	80 93 bc 39 	sts	0x39BC, r24	; 0x8039bc <__iob+0x2>
    20f2:	90 93 bd 39 	sts	0x39BD, r25	; 0x8039bd <__iob+0x3>
    20f6:	08 95       	ret

000020f8 <USART0_sendChar>:
  }

  void USART0_sendChar(char c){
	  while (!(USART0.STATUS & USART_DREIF_bm));
    20f8:	90 91 04 08 	lds	r25, 0x0804	; 0x800804 <daysInMonth+0x7f5196>
    20fc:	95 ff       	sbrs	r25, 5
    20fe:	fc cf       	rjmp	.-8      	; 0x20f8 <USART0_sendChar>
	  USART0.TXDATAL = c;
    2100:	80 93 02 08 	sts	0x0802, r24	; 0x800802 <daysInMonth+0x7f5194>
    2104:	08 95       	ret

00002106 <USART0_printChar>:
  }

  int USART0_printChar(char c, FILE *stream){
	  USART0_sendChar(c);
    2106:	0e 94 7c 10 	call	0x20f8	; 0x20f8 <USART0_sendChar>
	  return 0;
  }
    210a:	80 e0       	ldi	r24, 0x00	; 0
    210c:	90 e0       	ldi	r25, 0x00	; 0
    210e:	08 95       	ret

00002110 <acos>:
    2110:	9f 93       	push	r25
    2112:	9f 77       	andi	r25, 0x7F	; 127
    2114:	0e 94 ed 12 	call	0x25da	; 0x25da <__fp_arccos>
    2118:	0f 90       	pop	r0
    211a:	00 20       	and	r0, r0
    211c:	42 f4       	brpl	.+16     	; 0x212e <acos+0x1e>
    211e:	90 58       	subi	r25, 0x80	; 128
    2120:	a2 ea       	ldi	r26, 0xA2	; 162
    2122:	2a ed       	ldi	r18, 0xDA	; 218
    2124:	3f e0       	ldi	r19, 0x0F	; 15
    2126:	49 e4       	ldi	r20, 0x49	; 73
    2128:	50 e4       	ldi	r21, 0x40	; 64
    212a:	0e 94 b1 10 	call	0x2162	; 0x2162 <__addsf3x>
    212e:	0c 94 d7 13 	jmp	0x27ae	; 0x27ae <__fp_round>

00002132 <__subsf3>:
    2132:	50 58       	subi	r21, 0x80	; 128

00002134 <__addsf3>:
    2134:	bb 27       	eor	r27, r27
    2136:	aa 27       	eor	r26, r26
    2138:	0e 94 b1 10 	call	0x2162	; 0x2162 <__addsf3x>
    213c:	0c 94 d7 13 	jmp	0x27ae	; 0x27ae <__fp_round>
    2140:	0e 94 9e 13 	call	0x273c	; 0x273c <__fp_pscA>
    2144:	38 f0       	brcs	.+14     	; 0x2154 <__addsf3+0x20>
    2146:	0e 94 a5 13 	call	0x274a	; 0x274a <__fp_pscB>
    214a:	20 f0       	brcs	.+8      	; 0x2154 <__addsf3+0x20>
    214c:	39 f4       	brne	.+14     	; 0x215c <__addsf3+0x28>
    214e:	9f 3f       	cpi	r25, 0xFF	; 255
    2150:	19 f4       	brne	.+6      	; 0x2158 <__addsf3+0x24>
    2152:	26 f4       	brtc	.+8      	; 0x215c <__addsf3+0x28>
    2154:	0c 94 60 13 	jmp	0x26c0	; 0x26c0 <__fp_nan>
    2158:	0e f4       	brtc	.+2      	; 0x215c <__addsf3+0x28>
    215a:	e0 95       	com	r30
    215c:	e7 fb       	bst	r30, 7
    215e:	0c 94 31 13 	jmp	0x2662	; 0x2662 <__fp_inf>

00002162 <__addsf3x>:
    2162:	e9 2f       	mov	r30, r25
    2164:	0e 94 fc 13 	call	0x27f8	; 0x27f8 <__fp_split3>
    2168:	58 f3       	brcs	.-42     	; 0x2140 <__addsf3+0xc>
    216a:	ba 17       	cp	r27, r26
    216c:	62 07       	cpc	r22, r18
    216e:	73 07       	cpc	r23, r19
    2170:	84 07       	cpc	r24, r20
    2172:	95 07       	cpc	r25, r21
    2174:	20 f0       	brcs	.+8      	; 0x217e <__addsf3x+0x1c>
    2176:	79 f4       	brne	.+30     	; 0x2196 <__addsf3x+0x34>
    2178:	a6 f5       	brtc	.+104    	; 0x21e2 <__addsf3x+0x80>
    217a:	0c 94 36 14 	jmp	0x286c	; 0x286c <__fp_zero>
    217e:	0e f4       	brtc	.+2      	; 0x2182 <__addsf3x+0x20>
    2180:	e0 95       	com	r30
    2182:	0b 2e       	mov	r0, r27
    2184:	ba 2f       	mov	r27, r26
    2186:	a0 2d       	mov	r26, r0
    2188:	0b 01       	movw	r0, r22
    218a:	b9 01       	movw	r22, r18
    218c:	90 01       	movw	r18, r0
    218e:	0c 01       	movw	r0, r24
    2190:	ca 01       	movw	r24, r20
    2192:	a0 01       	movw	r20, r0
    2194:	11 24       	eor	r1, r1
    2196:	ff 27       	eor	r31, r31
    2198:	59 1b       	sub	r21, r25
    219a:	99 f0       	breq	.+38     	; 0x21c2 <__addsf3x+0x60>
    219c:	59 3f       	cpi	r21, 0xF9	; 249
    219e:	50 f4       	brcc	.+20     	; 0x21b4 <__addsf3x+0x52>
    21a0:	50 3e       	cpi	r21, 0xE0	; 224
    21a2:	68 f1       	brcs	.+90     	; 0x21fe <__addsf3x+0x9c>
    21a4:	1a 16       	cp	r1, r26
    21a6:	f0 40       	sbci	r31, 0x00	; 0
    21a8:	a2 2f       	mov	r26, r18
    21aa:	23 2f       	mov	r18, r19
    21ac:	34 2f       	mov	r19, r20
    21ae:	44 27       	eor	r20, r20
    21b0:	58 5f       	subi	r21, 0xF8	; 248
    21b2:	f3 cf       	rjmp	.-26     	; 0x219a <__addsf3x+0x38>
    21b4:	46 95       	lsr	r20
    21b6:	37 95       	ror	r19
    21b8:	27 95       	ror	r18
    21ba:	a7 95       	ror	r26
    21bc:	f0 40       	sbci	r31, 0x00	; 0
    21be:	53 95       	inc	r21
    21c0:	c9 f7       	brne	.-14     	; 0x21b4 <__addsf3x+0x52>
    21c2:	7e f4       	brtc	.+30     	; 0x21e2 <__addsf3x+0x80>
    21c4:	1f 16       	cp	r1, r31
    21c6:	ba 0b       	sbc	r27, r26
    21c8:	62 0b       	sbc	r22, r18
    21ca:	73 0b       	sbc	r23, r19
    21cc:	84 0b       	sbc	r24, r20
    21ce:	ba f0       	brmi	.+46     	; 0x21fe <__addsf3x+0x9c>
    21d0:	91 50       	subi	r25, 0x01	; 1
    21d2:	a1 f0       	breq	.+40     	; 0x21fc <__addsf3x+0x9a>
    21d4:	ff 0f       	add	r31, r31
    21d6:	bb 1f       	adc	r27, r27
    21d8:	66 1f       	adc	r22, r22
    21da:	77 1f       	adc	r23, r23
    21dc:	88 1f       	adc	r24, r24
    21de:	c2 f7       	brpl	.-16     	; 0x21d0 <__addsf3x+0x6e>
    21e0:	0e c0       	rjmp	.+28     	; 0x21fe <__addsf3x+0x9c>
    21e2:	ba 0f       	add	r27, r26
    21e4:	62 1f       	adc	r22, r18
    21e6:	73 1f       	adc	r23, r19
    21e8:	84 1f       	adc	r24, r20
    21ea:	48 f4       	brcc	.+18     	; 0x21fe <__addsf3x+0x9c>
    21ec:	87 95       	ror	r24
    21ee:	77 95       	ror	r23
    21f0:	67 95       	ror	r22
    21f2:	b7 95       	ror	r27
    21f4:	f7 95       	ror	r31
    21f6:	9e 3f       	cpi	r25, 0xFE	; 254
    21f8:	08 f0       	brcs	.+2      	; 0x21fc <__addsf3x+0x9a>
    21fa:	b0 cf       	rjmp	.-160    	; 0x215c <__addsf3+0x28>
    21fc:	93 95       	inc	r25
    21fe:	88 0f       	add	r24, r24
    2200:	08 f0       	brcs	.+2      	; 0x2204 <__addsf3x+0xa2>
    2202:	99 27       	eor	r25, r25
    2204:	ee 0f       	add	r30, r30
    2206:	97 95       	ror	r25
    2208:	87 95       	ror	r24
    220a:	08 95       	ret

0000220c <asin>:
    220c:	9f 93       	push	r25
    220e:	9f 77       	andi	r25, 0x7F	; 127
    2210:	ee e3       	ldi	r30, 0x3E	; 62
    2212:	89 37       	cpi	r24, 0x79	; 121
    2214:	9e 07       	cpc	r25, r30
    2216:	28 f4       	brcc	.+10     	; 0x2222 <asin+0x16>
    2218:	e8 e7       	ldi	r30, 0x78	; 120
    221a:	f0 e0       	ldi	r31, 0x00	; 0
    221c:	0e 94 8a 13 	call	0x2714	; 0x2714 <__fp_powsodd>
    2220:	0c c0       	rjmp	.+24     	; 0x223a <asin+0x2e>
    2222:	0e 94 ed 12 	call	0x25da	; 0x25da <__fp_arccos>
    2226:	90 58       	subi	r25, 0x80	; 128
    2228:	a2 ea       	ldi	r26, 0xA2	; 162
    222a:	2a ed       	ldi	r18, 0xDA	; 218
    222c:	3f e0       	ldi	r19, 0x0F	; 15
    222e:	49 ec       	ldi	r20, 0xC9	; 201
    2230:	5f e3       	ldi	r21, 0x3F	; 63
    2232:	0e 94 b1 10 	call	0x2162	; 0x2162 <__addsf3x>
    2236:	0e 94 d7 13 	call	0x27ae	; 0x27ae <__fp_round>
    223a:	0f 90       	pop	r0
    223c:	07 fc       	sbrc	r0, 7
    223e:	90 58       	subi	r25, 0x80	; 128
    2240:	08 95       	ret
    2242:	0e 94 9e 13 	call	0x273c	; 0x273c <__fp_pscA>
    2246:	60 f0       	brcs	.+24     	; 0x2260 <asin+0x54>
    2248:	80 e8       	ldi	r24, 0x80	; 128
    224a:	91 e0       	ldi	r25, 0x01	; 1
    224c:	09 f4       	brne	.+2      	; 0x2250 <asin+0x44>
    224e:	9e ef       	ldi	r25, 0xFE	; 254
    2250:	0e 94 a5 13 	call	0x274a	; 0x274a <__fp_pscB>
    2254:	28 f0       	brcs	.+10     	; 0x2260 <asin+0x54>
    2256:	40 e8       	ldi	r20, 0x80	; 128
    2258:	51 e0       	ldi	r21, 0x01	; 1
    225a:	71 f4       	brne	.+28     	; 0x2278 <atan2+0x10>
    225c:	5e ef       	ldi	r21, 0xFE	; 254
    225e:	0c c0       	rjmp	.+24     	; 0x2278 <atan2+0x10>
    2260:	0c 94 60 13 	jmp	0x26c0	; 0x26c0 <__fp_nan>
    2264:	0c 94 36 14 	jmp	0x286c	; 0x286c <__fp_zero>

00002268 <atan2>:
    2268:	e9 2f       	mov	r30, r25
    226a:	e0 78       	andi	r30, 0x80	; 128
    226c:	0e 94 fc 13 	call	0x27f8	; 0x27f8 <__fp_split3>
    2270:	40 f3       	brcs	.-48     	; 0x2242 <asin+0x36>
    2272:	09 2e       	mov	r0, r25
    2274:	05 2a       	or	r0, r21
    2276:	b1 f3       	breq	.-20     	; 0x2264 <asin+0x58>
    2278:	26 17       	cp	r18, r22
    227a:	37 07       	cpc	r19, r23
    227c:	48 07       	cpc	r20, r24
    227e:	59 07       	cpc	r21, r25
    2280:	38 f0       	brcs	.+14     	; 0x2290 <atan2+0x28>
    2282:	0e 2e       	mov	r0, r30
    2284:	07 f8       	bld	r0, 7
    2286:	e0 25       	eor	r30, r0
    2288:	69 f0       	breq	.+26     	; 0x22a4 <atan2+0x3c>
    228a:	e0 25       	eor	r30, r0
    228c:	e0 64       	ori	r30, 0x40	; 64
    228e:	0a c0       	rjmp	.+20     	; 0x22a4 <atan2+0x3c>
    2290:	ef 63       	ori	r30, 0x3F	; 63
    2292:	07 f8       	bld	r0, 7
    2294:	00 94       	com	r0
    2296:	07 fa       	bst	r0, 7
    2298:	db 01       	movw	r26, r22
    229a:	b9 01       	movw	r22, r18
    229c:	9d 01       	movw	r18, r26
    229e:	dc 01       	movw	r26, r24
    22a0:	ca 01       	movw	r24, r20
    22a2:	ad 01       	movw	r20, r26
    22a4:	ef 93       	push	r30
    22a6:	0e 94 b4 11 	call	0x2368	; 0x2368 <__divsf3_pse>
    22aa:	0e 94 d7 13 	call	0x27ae	; 0x27ae <__fp_round>
    22ae:	0e 94 64 11 	call	0x22c8	; 0x22c8 <atan>
    22b2:	5f 91       	pop	r21
    22b4:	55 23       	and	r21, r21
    22b6:	39 f0       	breq	.+14     	; 0x22c6 <atan2+0x5e>
    22b8:	2b ed       	ldi	r18, 0xDB	; 219
    22ba:	3f e0       	ldi	r19, 0x0F	; 15
    22bc:	49 e4       	ldi	r20, 0x49	; 73
    22be:	50 fd       	sbrc	r21, 0
    22c0:	49 ec       	ldi	r20, 0xC9	; 201
    22c2:	0c 94 9a 10 	jmp	0x2134	; 0x2134 <__addsf3>
    22c6:	08 95       	ret

000022c8 <atan>:
    22c8:	df 93       	push	r29
    22ca:	dd 27       	eor	r29, r29
    22cc:	b9 2f       	mov	r27, r25
    22ce:	bf 77       	andi	r27, 0x7F	; 127
    22d0:	40 e8       	ldi	r20, 0x80	; 128
    22d2:	5f e3       	ldi	r21, 0x3F	; 63
    22d4:	16 16       	cp	r1, r22
    22d6:	17 06       	cpc	r1, r23
    22d8:	48 07       	cpc	r20, r24
    22da:	5b 07       	cpc	r21, r27
    22dc:	18 f4       	brcc	.+6      	; 0x22e4 <atan+0x1c>
    22de:	d9 2f       	mov	r29, r25
    22e0:	0e 94 42 14 	call	0x2884	; 0x2884 <inverse>
    22e4:	9f 93       	push	r25
    22e6:	8f 93       	push	r24
    22e8:	7f 93       	push	r23
    22ea:	6f 93       	push	r22
    22ec:	0e 94 05 15 	call	0x2a0a	; 0x2a0a <square>
    22f0:	ec e8       	ldi	r30, 0x8C	; 140
    22f2:	f0 e0       	ldi	r31, 0x00	; 0
    22f4:	0e 94 63 13 	call	0x26c6	; 0x26c6 <__fp_powser>
    22f8:	0e 94 d7 13 	call	0x27ae	; 0x27ae <__fp_round>
    22fc:	2f 91       	pop	r18
    22fe:	3f 91       	pop	r19
    2300:	4f 91       	pop	r20
    2302:	5f 91       	pop	r21
    2304:	0e 94 5d 14 	call	0x28ba	; 0x28ba <__mulsf3x>
    2308:	dd 23       	and	r29, r29
    230a:	51 f0       	breq	.+20     	; 0x2320 <atan+0x58>
    230c:	90 58       	subi	r25, 0x80	; 128
    230e:	a2 ea       	ldi	r26, 0xA2	; 162
    2310:	2a ed       	ldi	r18, 0xDA	; 218
    2312:	3f e0       	ldi	r19, 0x0F	; 15
    2314:	49 ec       	ldi	r20, 0xC9	; 201
    2316:	5f e3       	ldi	r21, 0x3F	; 63
    2318:	d0 78       	andi	r29, 0x80	; 128
    231a:	5d 27       	eor	r21, r29
    231c:	0e 94 b1 10 	call	0x2162	; 0x2162 <__addsf3x>
    2320:	df 91       	pop	r29
    2322:	0c 94 d7 13 	jmp	0x27ae	; 0x27ae <__fp_round>

00002326 <__cmpsf2>:
    2326:	0e 94 0d 13 	call	0x261a	; 0x261a <__fp_cmp>
    232a:	08 f4       	brcc	.+2      	; 0x232e <__cmpsf2+0x8>
    232c:	81 e0       	ldi	r24, 0x01	; 1
    232e:	08 95       	ret

00002330 <cos>:
    2330:	0e 94 ae 13 	call	0x275c	; 0x275c <__fp_rempio2>
    2334:	e3 95       	inc	r30
    2336:	0c 94 e8 13 	jmp	0x27d0	; 0x27d0 <__fp_sinus>

0000233a <__divsf3>:
    233a:	0e 94 b1 11 	call	0x2362	; 0x2362 <__divsf3x>
    233e:	0c 94 d7 13 	jmp	0x27ae	; 0x27ae <__fp_round>
    2342:	0e 94 a5 13 	call	0x274a	; 0x274a <__fp_pscB>
    2346:	58 f0       	brcs	.+22     	; 0x235e <__divsf3+0x24>
    2348:	0e 94 9e 13 	call	0x273c	; 0x273c <__fp_pscA>
    234c:	40 f0       	brcs	.+16     	; 0x235e <__divsf3+0x24>
    234e:	29 f4       	brne	.+10     	; 0x235a <__divsf3+0x20>
    2350:	5f 3f       	cpi	r21, 0xFF	; 255
    2352:	29 f0       	breq	.+10     	; 0x235e <__divsf3+0x24>
    2354:	0c 94 31 13 	jmp	0x2662	; 0x2662 <__fp_inf>
    2358:	51 11       	cpse	r21, r1
    235a:	0c 94 37 14 	jmp	0x286e	; 0x286e <__fp_szero>
    235e:	0c 94 60 13 	jmp	0x26c0	; 0x26c0 <__fp_nan>

00002362 <__divsf3x>:
    2362:	0e 94 fc 13 	call	0x27f8	; 0x27f8 <__fp_split3>
    2366:	68 f3       	brcs	.-38     	; 0x2342 <__divsf3+0x8>

00002368 <__divsf3_pse>:
    2368:	99 23       	and	r25, r25
    236a:	b1 f3       	breq	.-20     	; 0x2358 <__divsf3+0x1e>
    236c:	55 23       	and	r21, r21
    236e:	91 f3       	breq	.-28     	; 0x2354 <__divsf3+0x1a>
    2370:	95 1b       	sub	r25, r21
    2372:	55 0b       	sbc	r21, r21
    2374:	bb 27       	eor	r27, r27
    2376:	aa 27       	eor	r26, r26
    2378:	62 17       	cp	r22, r18
    237a:	73 07       	cpc	r23, r19
    237c:	84 07       	cpc	r24, r20
    237e:	38 f0       	brcs	.+14     	; 0x238e <__divsf3_pse+0x26>
    2380:	9f 5f       	subi	r25, 0xFF	; 255
    2382:	5f 4f       	sbci	r21, 0xFF	; 255
    2384:	22 0f       	add	r18, r18
    2386:	33 1f       	adc	r19, r19
    2388:	44 1f       	adc	r20, r20
    238a:	aa 1f       	adc	r26, r26
    238c:	a9 f3       	breq	.-22     	; 0x2378 <__divsf3_pse+0x10>
    238e:	35 d0       	rcall	.+106    	; 0x23fa <__divsf3_pse+0x92>
    2390:	0e 2e       	mov	r0, r30
    2392:	3a f0       	brmi	.+14     	; 0x23a2 <__divsf3_pse+0x3a>
    2394:	e0 e8       	ldi	r30, 0x80	; 128
    2396:	32 d0       	rcall	.+100    	; 0x23fc <__divsf3_pse+0x94>
    2398:	91 50       	subi	r25, 0x01	; 1
    239a:	50 40       	sbci	r21, 0x00	; 0
    239c:	e6 95       	lsr	r30
    239e:	00 1c       	adc	r0, r0
    23a0:	ca f7       	brpl	.-14     	; 0x2394 <__divsf3_pse+0x2c>
    23a2:	2b d0       	rcall	.+86     	; 0x23fa <__divsf3_pse+0x92>
    23a4:	fe 2f       	mov	r31, r30
    23a6:	29 d0       	rcall	.+82     	; 0x23fa <__divsf3_pse+0x92>
    23a8:	66 0f       	add	r22, r22
    23aa:	77 1f       	adc	r23, r23
    23ac:	88 1f       	adc	r24, r24
    23ae:	bb 1f       	adc	r27, r27
    23b0:	26 17       	cp	r18, r22
    23b2:	37 07       	cpc	r19, r23
    23b4:	48 07       	cpc	r20, r24
    23b6:	ab 07       	cpc	r26, r27
    23b8:	b0 e8       	ldi	r27, 0x80	; 128
    23ba:	09 f0       	breq	.+2      	; 0x23be <__divsf3_pse+0x56>
    23bc:	bb 0b       	sbc	r27, r27
    23be:	80 2d       	mov	r24, r0
    23c0:	bf 01       	movw	r22, r30
    23c2:	ff 27       	eor	r31, r31
    23c4:	93 58       	subi	r25, 0x83	; 131
    23c6:	5f 4f       	sbci	r21, 0xFF	; 255
    23c8:	3a f0       	brmi	.+14     	; 0x23d8 <__divsf3_pse+0x70>
    23ca:	9e 3f       	cpi	r25, 0xFE	; 254
    23cc:	51 05       	cpc	r21, r1
    23ce:	78 f0       	brcs	.+30     	; 0x23ee <__divsf3_pse+0x86>
    23d0:	0c 94 31 13 	jmp	0x2662	; 0x2662 <__fp_inf>
    23d4:	0c 94 37 14 	jmp	0x286e	; 0x286e <__fp_szero>
    23d8:	5f 3f       	cpi	r21, 0xFF	; 255
    23da:	e4 f3       	brlt	.-8      	; 0x23d4 <__divsf3_pse+0x6c>
    23dc:	98 3e       	cpi	r25, 0xE8	; 232
    23de:	d4 f3       	brlt	.-12     	; 0x23d4 <__divsf3_pse+0x6c>
    23e0:	86 95       	lsr	r24
    23e2:	77 95       	ror	r23
    23e4:	67 95       	ror	r22
    23e6:	b7 95       	ror	r27
    23e8:	f7 95       	ror	r31
    23ea:	9f 5f       	subi	r25, 0xFF	; 255
    23ec:	c9 f7       	brne	.-14     	; 0x23e0 <__divsf3_pse+0x78>
    23ee:	88 0f       	add	r24, r24
    23f0:	91 1d       	adc	r25, r1
    23f2:	96 95       	lsr	r25
    23f4:	87 95       	ror	r24
    23f6:	97 f9       	bld	r25, 7
    23f8:	08 95       	ret
    23fa:	e1 e0       	ldi	r30, 0x01	; 1
    23fc:	66 0f       	add	r22, r22
    23fe:	77 1f       	adc	r23, r23
    2400:	88 1f       	adc	r24, r24
    2402:	bb 1f       	adc	r27, r27
    2404:	62 17       	cp	r22, r18
    2406:	73 07       	cpc	r23, r19
    2408:	84 07       	cpc	r24, r20
    240a:	ba 07       	cpc	r27, r26
    240c:	20 f0       	brcs	.+8      	; 0x2416 <__divsf3_pse+0xae>
    240e:	62 1b       	sub	r22, r18
    2410:	73 0b       	sbc	r23, r19
    2412:	84 0b       	sbc	r24, r20
    2414:	ba 0b       	sbc	r27, r26
    2416:	ee 1f       	adc	r30, r30
    2418:	88 f7       	brcc	.-30     	; 0x23fc <__divsf3_pse+0x94>
    241a:	e0 95       	com	r30
    241c:	08 95       	ret

0000241e <__fixsfsi>:
    241e:	0e 94 16 12 	call	0x242c	; 0x242c <__fixunssfsi>
    2422:	68 94       	set
    2424:	b1 11       	cpse	r27, r1
    2426:	0c 94 37 14 	jmp	0x286e	; 0x286e <__fp_szero>
    242a:	08 95       	ret

0000242c <__fixunssfsi>:
    242c:	0e 94 04 14 	call	0x2808	; 0x2808 <__fp_splitA>
    2430:	88 f0       	brcs	.+34     	; 0x2454 <__fixunssfsi+0x28>
    2432:	9f 57       	subi	r25, 0x7F	; 127
    2434:	98 f0       	brcs	.+38     	; 0x245c <__fixunssfsi+0x30>
    2436:	b9 2f       	mov	r27, r25
    2438:	99 27       	eor	r25, r25
    243a:	b7 51       	subi	r27, 0x17	; 23
    243c:	b0 f0       	brcs	.+44     	; 0x246a <__fixunssfsi+0x3e>
    243e:	e1 f0       	breq	.+56     	; 0x2478 <__fixunssfsi+0x4c>
    2440:	66 0f       	add	r22, r22
    2442:	77 1f       	adc	r23, r23
    2444:	88 1f       	adc	r24, r24
    2446:	99 1f       	adc	r25, r25
    2448:	1a f0       	brmi	.+6      	; 0x2450 <__fixunssfsi+0x24>
    244a:	ba 95       	dec	r27
    244c:	c9 f7       	brne	.-14     	; 0x2440 <__fixunssfsi+0x14>
    244e:	14 c0       	rjmp	.+40     	; 0x2478 <__fixunssfsi+0x4c>
    2450:	b1 30       	cpi	r27, 0x01	; 1
    2452:	91 f0       	breq	.+36     	; 0x2478 <__fixunssfsi+0x4c>
    2454:	0e 94 36 14 	call	0x286c	; 0x286c <__fp_zero>
    2458:	b1 e0       	ldi	r27, 0x01	; 1
    245a:	08 95       	ret
    245c:	0c 94 36 14 	jmp	0x286c	; 0x286c <__fp_zero>
    2460:	67 2f       	mov	r22, r23
    2462:	78 2f       	mov	r23, r24
    2464:	88 27       	eor	r24, r24
    2466:	b8 5f       	subi	r27, 0xF8	; 248
    2468:	39 f0       	breq	.+14     	; 0x2478 <__fixunssfsi+0x4c>
    246a:	b9 3f       	cpi	r27, 0xF9	; 249
    246c:	cc f3       	brlt	.-14     	; 0x2460 <__fixunssfsi+0x34>
    246e:	86 95       	lsr	r24
    2470:	77 95       	ror	r23
    2472:	67 95       	ror	r22
    2474:	b3 95       	inc	r27
    2476:	d9 f7       	brne	.-10     	; 0x246e <__fixunssfsi+0x42>
    2478:	3e f4       	brtc	.+14     	; 0x2488 <__fixunssfsi+0x5c>
    247a:	90 95       	com	r25
    247c:	80 95       	com	r24
    247e:	70 95       	com	r23
    2480:	61 95       	neg	r22
    2482:	7f 4f       	sbci	r23, 0xFF	; 255
    2484:	8f 4f       	sbci	r24, 0xFF	; 255
    2486:	9f 4f       	sbci	r25, 0xFF	; 255
    2488:	08 95       	ret

0000248a <__floatunsisf>:
    248a:	e8 94       	clt
    248c:	09 c0       	rjmp	.+18     	; 0x24a0 <__floatsisf+0x12>

0000248e <__floatsisf>:
    248e:	97 fb       	bst	r25, 7
    2490:	3e f4       	brtc	.+14     	; 0x24a0 <__floatsisf+0x12>
    2492:	90 95       	com	r25
    2494:	80 95       	com	r24
    2496:	70 95       	com	r23
    2498:	61 95       	neg	r22
    249a:	7f 4f       	sbci	r23, 0xFF	; 255
    249c:	8f 4f       	sbci	r24, 0xFF	; 255
    249e:	9f 4f       	sbci	r25, 0xFF	; 255
    24a0:	99 23       	and	r25, r25
    24a2:	a9 f0       	breq	.+42     	; 0x24ce <__floatsisf+0x40>
    24a4:	f9 2f       	mov	r31, r25
    24a6:	96 e9       	ldi	r25, 0x96	; 150
    24a8:	bb 27       	eor	r27, r27
    24aa:	93 95       	inc	r25
    24ac:	f6 95       	lsr	r31
    24ae:	87 95       	ror	r24
    24b0:	77 95       	ror	r23
    24b2:	67 95       	ror	r22
    24b4:	b7 95       	ror	r27
    24b6:	f1 11       	cpse	r31, r1
    24b8:	f8 cf       	rjmp	.-16     	; 0x24aa <__floatsisf+0x1c>
    24ba:	fa f4       	brpl	.+62     	; 0x24fa <__floatsisf+0x6c>
    24bc:	bb 0f       	add	r27, r27
    24be:	11 f4       	brne	.+4      	; 0x24c4 <__floatsisf+0x36>
    24c0:	60 ff       	sbrs	r22, 0
    24c2:	1b c0       	rjmp	.+54     	; 0x24fa <__floatsisf+0x6c>
    24c4:	6f 5f       	subi	r22, 0xFF	; 255
    24c6:	7f 4f       	sbci	r23, 0xFF	; 255
    24c8:	8f 4f       	sbci	r24, 0xFF	; 255
    24ca:	9f 4f       	sbci	r25, 0xFF	; 255
    24cc:	16 c0       	rjmp	.+44     	; 0x24fa <__floatsisf+0x6c>
    24ce:	88 23       	and	r24, r24
    24d0:	11 f0       	breq	.+4      	; 0x24d6 <__floatsisf+0x48>
    24d2:	96 e9       	ldi	r25, 0x96	; 150
    24d4:	11 c0       	rjmp	.+34     	; 0x24f8 <__floatsisf+0x6a>
    24d6:	77 23       	and	r23, r23
    24d8:	21 f0       	breq	.+8      	; 0x24e2 <__floatsisf+0x54>
    24da:	9e e8       	ldi	r25, 0x8E	; 142
    24dc:	87 2f       	mov	r24, r23
    24de:	76 2f       	mov	r23, r22
    24e0:	05 c0       	rjmp	.+10     	; 0x24ec <__floatsisf+0x5e>
    24e2:	66 23       	and	r22, r22
    24e4:	71 f0       	breq	.+28     	; 0x2502 <__floatsisf+0x74>
    24e6:	96 e8       	ldi	r25, 0x86	; 134
    24e8:	86 2f       	mov	r24, r22
    24ea:	70 e0       	ldi	r23, 0x00	; 0
    24ec:	60 e0       	ldi	r22, 0x00	; 0
    24ee:	2a f0       	brmi	.+10     	; 0x24fa <__floatsisf+0x6c>
    24f0:	9a 95       	dec	r25
    24f2:	66 0f       	add	r22, r22
    24f4:	77 1f       	adc	r23, r23
    24f6:	88 1f       	adc	r24, r24
    24f8:	da f7       	brpl	.-10     	; 0x24f0 <__floatsisf+0x62>
    24fa:	88 0f       	add	r24, r24
    24fc:	96 95       	lsr	r25
    24fe:	87 95       	ror	r24
    2500:	97 f9       	bld	r25, 7
    2502:	08 95       	ret

00002504 <floor>:
    2504:	0e 94 1e 14 	call	0x283c	; 0x283c <__fp_trunc>
    2508:	90 f0       	brcs	.+36     	; 0x252e <floor+0x2a>
    250a:	9f 37       	cpi	r25, 0x7F	; 127
    250c:	48 f4       	brcc	.+18     	; 0x2520 <floor+0x1c>
    250e:	91 11       	cpse	r25, r1
    2510:	16 f0       	brts	.+4      	; 0x2516 <floor+0x12>
    2512:	0c 94 37 14 	jmp	0x286e	; 0x286e <__fp_szero>
    2516:	60 e0       	ldi	r22, 0x00	; 0
    2518:	70 e0       	ldi	r23, 0x00	; 0
    251a:	80 e8       	ldi	r24, 0x80	; 128
    251c:	9f eb       	ldi	r25, 0xBF	; 191
    251e:	08 95       	ret
    2520:	26 f4       	brtc	.+8      	; 0x252a <floor+0x26>
    2522:	1b 16       	cp	r1, r27
    2524:	61 1d       	adc	r22, r1
    2526:	71 1d       	adc	r23, r1
    2528:	81 1d       	adc	r24, r1
    252a:	0c 94 37 13 	jmp	0x266e	; 0x266e <__fp_mintl>
    252e:	0c 94 52 13 	jmp	0x26a4	; 0x26a4 <__fp_mpack>
    2532:	0e 94 9e 13 	call	0x273c	; 0x273c <__fp_pscA>
    2536:	20 f0       	brcs	.+8      	; 0x2540 <floor+0x3c>
    2538:	19 f0       	breq	.+6      	; 0x2540 <floor+0x3c>
    253a:	0e 94 a5 13 	call	0x274a	; 0x274a <__fp_pscB>
    253e:	50 f4       	brcc	.+20     	; 0x2554 <fmod+0xc>
    2540:	0c 94 60 13 	jmp	0x26c0	; 0x26c0 <__fp_nan>
    2544:	0c 94 37 14 	jmp	0x286e	; 0x286e <__fp_szero>

00002548 <fmod>:
    2548:	e9 2f       	mov	r30, r25
    254a:	0e 94 fc 13 	call	0x27f8	; 0x27f8 <__fp_split3>
    254e:	88 f3       	brcs	.-30     	; 0x2532 <floor+0x2e>
    2550:	55 23       	and	r21, r21
    2552:	b1 f3       	breq	.-20     	; 0x2540 <floor+0x3c>
    2554:	e7 fb       	bst	r30, 7
    2556:	62 17       	cp	r22, r18
    2558:	73 07       	cpc	r23, r19
    255a:	84 07       	cpc	r24, r20
    255c:	95 07       	cpc	r25, r21
    255e:	a8 f1       	brcs	.+106    	; 0x25ca <fmod+0x82>
    2560:	89 f3       	breq	.-30     	; 0x2544 <floor+0x40>
    2562:	e9 2f       	mov	r30, r25
    2564:	ff 27       	eor	r31, r31
    2566:	88 23       	and	r24, r24
    2568:	2a f0       	brmi	.+10     	; 0x2574 <fmod+0x2c>
    256a:	31 97       	sbiw	r30, 0x01	; 1
    256c:	66 0f       	add	r22, r22
    256e:	77 1f       	adc	r23, r23
    2570:	88 1f       	adc	r24, r24
    2572:	da f7       	brpl	.-10     	; 0x256a <fmod+0x22>
    2574:	95 2f       	mov	r25, r21
    2576:	55 27       	eor	r21, r21
    2578:	44 23       	and	r20, r20
    257a:	32 f0       	brmi	.+12     	; 0x2588 <fmod+0x40>
    257c:	91 50       	subi	r25, 0x01	; 1
    257e:	50 40       	sbci	r21, 0x00	; 0
    2580:	22 0f       	add	r18, r18
    2582:	33 1f       	adc	r19, r19
    2584:	44 1f       	adc	r20, r20
    2586:	d2 f7       	brpl	.-12     	; 0x257c <fmod+0x34>
    2588:	bb 27       	eor	r27, r27
    258a:	e9 1b       	sub	r30, r25
    258c:	f5 0b       	sbc	r31, r21
    258e:	62 1b       	sub	r22, r18
    2590:	73 0b       	sbc	r23, r19
    2592:	84 0b       	sbc	r24, r20
    2594:	b1 09       	sbc	r27, r1
    2596:	b1 f2       	breq	.-84     	; 0x2544 <floor+0x40>
    2598:	22 f4       	brpl	.+8      	; 0x25a2 <fmod+0x5a>
    259a:	62 0f       	add	r22, r18
    259c:	73 1f       	adc	r23, r19
    259e:	84 1f       	adc	r24, r20
    25a0:	b1 1d       	adc	r27, r1
    25a2:	31 97       	sbiw	r30, 0x01	; 1
    25a4:	2a f0       	brmi	.+10     	; 0x25b0 <fmod+0x68>
    25a6:	66 0f       	add	r22, r22
    25a8:	77 1f       	adc	r23, r23
    25aa:	88 1f       	adc	r24, r24
    25ac:	bb 1f       	adc	r27, r27
    25ae:	ef cf       	rjmp	.-34     	; 0x258e <fmod+0x46>
    25b0:	91 50       	subi	r25, 0x01	; 1
    25b2:	50 40       	sbci	r21, 0x00	; 0
    25b4:	62 f0       	brmi	.+24     	; 0x25ce <fmod+0x86>
    25b6:	41 f0       	breq	.+16     	; 0x25c8 <fmod+0x80>
    25b8:	88 23       	and	r24, r24
    25ba:	32 f0       	brmi	.+12     	; 0x25c8 <fmod+0x80>
    25bc:	66 0f       	add	r22, r22
    25be:	77 1f       	adc	r23, r23
    25c0:	88 1f       	adc	r24, r24
    25c2:	91 50       	subi	r25, 0x01	; 1
    25c4:	50 40       	sbci	r21, 0x00	; 0
    25c6:	c1 f7       	brne	.-16     	; 0x25b8 <fmod+0x70>
    25c8:	93 95       	inc	r25
    25ca:	0c 94 52 13 	jmp	0x26a4	; 0x26a4 <__fp_mpack>
    25ce:	86 95       	lsr	r24
    25d0:	77 95       	ror	r23
    25d2:	67 95       	ror	r22
    25d4:	9f 5f       	subi	r25, 0xFF	; 255
    25d6:	d9 f7       	brne	.-10     	; 0x25ce <fmod+0x86>
    25d8:	f7 cf       	rjmp	.-18     	; 0x25c8 <fmod+0x80>

000025da <__fp_arccos>:
    25da:	df 93       	push	r29
    25dc:	cf 93       	push	r28
    25de:	1f 93       	push	r17
    25e0:	0f 93       	push	r16
    25e2:	8b 01       	movw	r16, r22
    25e4:	ec 01       	movw	r28, r24
    25e6:	e9 eb       	ldi	r30, 0xB9	; 185
    25e8:	f0 e0       	ldi	r31, 0x00	; 0
    25ea:	0e 94 63 13 	call	0x26c6	; 0x26c6 <__fp_powser>
    25ee:	0e 94 d7 13 	call	0x27ae	; 0x27ae <__fp_round>
    25f2:	98 01       	movw	r18, r16
    25f4:	ae 01       	movw	r20, r28
    25f6:	8b 01       	movw	r16, r22
    25f8:	ec 01       	movw	r28, r24
    25fa:	60 e0       	ldi	r22, 0x00	; 0
    25fc:	70 e0       	ldi	r23, 0x00	; 0
    25fe:	80 e8       	ldi	r24, 0x80	; 128
    2600:	9f e3       	ldi	r25, 0x3F	; 63
    2602:	0e 94 99 10 	call	0x2132	; 0x2132 <__subsf3>
    2606:	0e 94 c5 14 	call	0x298a	; 0x298a <sqrt>
    260a:	98 01       	movw	r18, r16
    260c:	ae 01       	movw	r20, r28
    260e:	0f 91       	pop	r16
    2610:	1f 91       	pop	r17
    2612:	cf 91       	pop	r28
    2614:	df 91       	pop	r29
    2616:	0c 94 5d 14 	jmp	0x28ba	; 0x28ba <__mulsf3x>

0000261a <__fp_cmp>:
    261a:	99 0f       	add	r25, r25
    261c:	00 08       	sbc	r0, r0
    261e:	55 0f       	add	r21, r21
    2620:	aa 0b       	sbc	r26, r26
    2622:	e0 e8       	ldi	r30, 0x80	; 128
    2624:	fe ef       	ldi	r31, 0xFE	; 254
    2626:	16 16       	cp	r1, r22
    2628:	17 06       	cpc	r1, r23
    262a:	e8 07       	cpc	r30, r24
    262c:	f9 07       	cpc	r31, r25
    262e:	c0 f0       	brcs	.+48     	; 0x2660 <__fp_cmp+0x46>
    2630:	12 16       	cp	r1, r18
    2632:	13 06       	cpc	r1, r19
    2634:	e4 07       	cpc	r30, r20
    2636:	f5 07       	cpc	r31, r21
    2638:	98 f0       	brcs	.+38     	; 0x2660 <__fp_cmp+0x46>
    263a:	62 1b       	sub	r22, r18
    263c:	73 0b       	sbc	r23, r19
    263e:	84 0b       	sbc	r24, r20
    2640:	95 0b       	sbc	r25, r21
    2642:	39 f4       	brne	.+14     	; 0x2652 <__fp_cmp+0x38>
    2644:	0a 26       	eor	r0, r26
    2646:	61 f0       	breq	.+24     	; 0x2660 <__fp_cmp+0x46>
    2648:	23 2b       	or	r18, r19
    264a:	24 2b       	or	r18, r20
    264c:	25 2b       	or	r18, r21
    264e:	21 f4       	brne	.+8      	; 0x2658 <__fp_cmp+0x3e>
    2650:	08 95       	ret
    2652:	0a 26       	eor	r0, r26
    2654:	09 f4       	brne	.+2      	; 0x2658 <__fp_cmp+0x3e>
    2656:	a1 40       	sbci	r26, 0x01	; 1
    2658:	a6 95       	lsr	r26
    265a:	8f ef       	ldi	r24, 0xFF	; 255
    265c:	81 1d       	adc	r24, r1
    265e:	81 1d       	adc	r24, r1
    2660:	08 95       	ret

00002662 <__fp_inf>:
    2662:	97 f9       	bld	r25, 7
    2664:	9f 67       	ori	r25, 0x7F	; 127
    2666:	80 e8       	ldi	r24, 0x80	; 128
    2668:	70 e0       	ldi	r23, 0x00	; 0
    266a:	60 e0       	ldi	r22, 0x00	; 0
    266c:	08 95       	ret

0000266e <__fp_mintl>:
    266e:	88 23       	and	r24, r24
    2670:	71 f4       	brne	.+28     	; 0x268e <__fp_mintl+0x20>
    2672:	77 23       	and	r23, r23
    2674:	21 f0       	breq	.+8      	; 0x267e <__fp_mintl+0x10>
    2676:	98 50       	subi	r25, 0x08	; 8
    2678:	87 2b       	or	r24, r23
    267a:	76 2f       	mov	r23, r22
    267c:	07 c0       	rjmp	.+14     	; 0x268c <__fp_mintl+0x1e>
    267e:	66 23       	and	r22, r22
    2680:	11 f4       	brne	.+4      	; 0x2686 <__fp_mintl+0x18>
    2682:	99 27       	eor	r25, r25
    2684:	0d c0       	rjmp	.+26     	; 0x26a0 <__fp_mintl+0x32>
    2686:	90 51       	subi	r25, 0x10	; 16
    2688:	86 2b       	or	r24, r22
    268a:	70 e0       	ldi	r23, 0x00	; 0
    268c:	60 e0       	ldi	r22, 0x00	; 0
    268e:	2a f0       	brmi	.+10     	; 0x269a <__fp_mintl+0x2c>
    2690:	9a 95       	dec	r25
    2692:	66 0f       	add	r22, r22
    2694:	77 1f       	adc	r23, r23
    2696:	88 1f       	adc	r24, r24
    2698:	da f7       	brpl	.-10     	; 0x2690 <__fp_mintl+0x22>
    269a:	88 0f       	add	r24, r24
    269c:	96 95       	lsr	r25
    269e:	87 95       	ror	r24
    26a0:	97 f9       	bld	r25, 7
    26a2:	08 95       	ret

000026a4 <__fp_mpack>:
    26a4:	9f 3f       	cpi	r25, 0xFF	; 255
    26a6:	31 f0       	breq	.+12     	; 0x26b4 <__fp_mpack_finite+0xc>

000026a8 <__fp_mpack_finite>:
    26a8:	91 50       	subi	r25, 0x01	; 1
    26aa:	20 f4       	brcc	.+8      	; 0x26b4 <__fp_mpack_finite+0xc>
    26ac:	87 95       	ror	r24
    26ae:	77 95       	ror	r23
    26b0:	67 95       	ror	r22
    26b2:	b7 95       	ror	r27
    26b4:	88 0f       	add	r24, r24
    26b6:	91 1d       	adc	r25, r1
    26b8:	96 95       	lsr	r25
    26ba:	87 95       	ror	r24
    26bc:	97 f9       	bld	r25, 7
    26be:	08 95       	ret

000026c0 <__fp_nan>:
    26c0:	9f ef       	ldi	r25, 0xFF	; 255
    26c2:	80 ec       	ldi	r24, 0xC0	; 192
    26c4:	08 95       	ret

000026c6 <__fp_powser>:
    26c6:	df 93       	push	r29
    26c8:	cf 93       	push	r28
    26ca:	1f 93       	push	r17
    26cc:	0f 93       	push	r16
    26ce:	ff 92       	push	r15
    26d0:	ef 92       	push	r14
    26d2:	df 92       	push	r13
    26d4:	7b 01       	movw	r14, r22
    26d6:	8c 01       	movw	r16, r24
    26d8:	68 94       	set
    26da:	06 c0       	rjmp	.+12     	; 0x26e8 <__fp_powser+0x22>
    26dc:	da 2e       	mov	r13, r26
    26de:	ef 01       	movw	r28, r30
    26e0:	0e 94 5d 14 	call	0x28ba	; 0x28ba <__mulsf3x>
    26e4:	fe 01       	movw	r30, r28
    26e6:	e8 94       	clt
    26e8:	a5 91       	lpm	r26, Z+
    26ea:	25 91       	lpm	r18, Z+
    26ec:	35 91       	lpm	r19, Z+
    26ee:	45 91       	lpm	r20, Z+
    26f0:	55 91       	lpm	r21, Z+
    26f2:	a6 f3       	brts	.-24     	; 0x26dc <__fp_powser+0x16>
    26f4:	ef 01       	movw	r28, r30
    26f6:	0e 94 b1 10 	call	0x2162	; 0x2162 <__addsf3x>
    26fa:	fe 01       	movw	r30, r28
    26fc:	97 01       	movw	r18, r14
    26fe:	a8 01       	movw	r20, r16
    2700:	da 94       	dec	r13
    2702:	69 f7       	brne	.-38     	; 0x26de <__fp_powser+0x18>
    2704:	df 90       	pop	r13
    2706:	ef 90       	pop	r14
    2708:	ff 90       	pop	r15
    270a:	0f 91       	pop	r16
    270c:	1f 91       	pop	r17
    270e:	cf 91       	pop	r28
    2710:	df 91       	pop	r29
    2712:	08 95       	ret

00002714 <__fp_powsodd>:
    2714:	9f 93       	push	r25
    2716:	8f 93       	push	r24
    2718:	7f 93       	push	r23
    271a:	6f 93       	push	r22
    271c:	ff 93       	push	r31
    271e:	ef 93       	push	r30
    2720:	9b 01       	movw	r18, r22
    2722:	ac 01       	movw	r20, r24
    2724:	0e 94 4a 14 	call	0x2894	; 0x2894 <__mulsf3>
    2728:	ef 91       	pop	r30
    272a:	ff 91       	pop	r31
    272c:	0e 94 63 13 	call	0x26c6	; 0x26c6 <__fp_powser>
    2730:	2f 91       	pop	r18
    2732:	3f 91       	pop	r19
    2734:	4f 91       	pop	r20
    2736:	5f 91       	pop	r21
    2738:	0c 94 4a 14 	jmp	0x2894	; 0x2894 <__mulsf3>

0000273c <__fp_pscA>:
    273c:	00 24       	eor	r0, r0
    273e:	0a 94       	dec	r0
    2740:	16 16       	cp	r1, r22
    2742:	17 06       	cpc	r1, r23
    2744:	18 06       	cpc	r1, r24
    2746:	09 06       	cpc	r0, r25
    2748:	08 95       	ret

0000274a <__fp_pscB>:
    274a:	00 24       	eor	r0, r0
    274c:	0a 94       	dec	r0
    274e:	12 16       	cp	r1, r18
    2750:	13 06       	cpc	r1, r19
    2752:	14 06       	cpc	r1, r20
    2754:	05 06       	cpc	r0, r21
    2756:	08 95       	ret
    2758:	0c 94 60 13 	jmp	0x26c0	; 0x26c0 <__fp_nan>

0000275c <__fp_rempio2>:
    275c:	0e 94 04 14 	call	0x2808	; 0x2808 <__fp_splitA>
    2760:	d8 f3       	brcs	.-10     	; 0x2758 <__fp_pscB+0xe>
    2762:	e8 94       	clt
    2764:	e0 e0       	ldi	r30, 0x00	; 0
    2766:	bb 27       	eor	r27, r27
    2768:	9f 57       	subi	r25, 0x7F	; 127
    276a:	f0 f0       	brcs	.+60     	; 0x27a8 <__fp_rempio2+0x4c>
    276c:	2a ed       	ldi	r18, 0xDA	; 218
    276e:	3f e0       	ldi	r19, 0x0F	; 15
    2770:	49 ec       	ldi	r20, 0xC9	; 201
    2772:	06 c0       	rjmp	.+12     	; 0x2780 <__fp_rempio2+0x24>
    2774:	ee 0f       	add	r30, r30
    2776:	bb 0f       	add	r27, r27
    2778:	66 1f       	adc	r22, r22
    277a:	77 1f       	adc	r23, r23
    277c:	88 1f       	adc	r24, r24
    277e:	28 f0       	brcs	.+10     	; 0x278a <__fp_rempio2+0x2e>
    2780:	b2 3a       	cpi	r27, 0xA2	; 162
    2782:	62 07       	cpc	r22, r18
    2784:	73 07       	cpc	r23, r19
    2786:	84 07       	cpc	r24, r20
    2788:	28 f0       	brcs	.+10     	; 0x2794 <__fp_rempio2+0x38>
    278a:	b2 5a       	subi	r27, 0xA2	; 162
    278c:	62 0b       	sbc	r22, r18
    278e:	73 0b       	sbc	r23, r19
    2790:	84 0b       	sbc	r24, r20
    2792:	e3 95       	inc	r30
    2794:	9a 95       	dec	r25
    2796:	72 f7       	brpl	.-36     	; 0x2774 <__fp_rempio2+0x18>
    2798:	80 38       	cpi	r24, 0x80	; 128
    279a:	30 f4       	brcc	.+12     	; 0x27a8 <__fp_rempio2+0x4c>
    279c:	9a 95       	dec	r25
    279e:	bb 0f       	add	r27, r27
    27a0:	66 1f       	adc	r22, r22
    27a2:	77 1f       	adc	r23, r23
    27a4:	88 1f       	adc	r24, r24
    27a6:	d2 f7       	brpl	.-12     	; 0x279c <__fp_rempio2+0x40>
    27a8:	90 48       	sbci	r25, 0x80	; 128
    27aa:	0c 94 54 13 	jmp	0x26a8	; 0x26a8 <__fp_mpack_finite>

000027ae <__fp_round>:
    27ae:	09 2e       	mov	r0, r25
    27b0:	03 94       	inc	r0
    27b2:	00 0c       	add	r0, r0
    27b4:	11 f4       	brne	.+4      	; 0x27ba <__fp_round+0xc>
    27b6:	88 23       	and	r24, r24
    27b8:	52 f0       	brmi	.+20     	; 0x27ce <__fp_round+0x20>
    27ba:	bb 0f       	add	r27, r27
    27bc:	40 f4       	brcc	.+16     	; 0x27ce <__fp_round+0x20>
    27be:	bf 2b       	or	r27, r31
    27c0:	11 f4       	brne	.+4      	; 0x27c6 <__fp_round+0x18>
    27c2:	60 ff       	sbrs	r22, 0
    27c4:	04 c0       	rjmp	.+8      	; 0x27ce <__fp_round+0x20>
    27c6:	6f 5f       	subi	r22, 0xFF	; 255
    27c8:	7f 4f       	sbci	r23, 0xFF	; 255
    27ca:	8f 4f       	sbci	r24, 0xFF	; 255
    27cc:	9f 4f       	sbci	r25, 0xFF	; 255
    27ce:	08 95       	ret

000027d0 <__fp_sinus>:
    27d0:	ef 93       	push	r30
    27d2:	e0 ff       	sbrs	r30, 0
    27d4:	07 c0       	rjmp	.+14     	; 0x27e4 <__fp_sinus+0x14>
    27d6:	a2 ea       	ldi	r26, 0xA2	; 162
    27d8:	2a ed       	ldi	r18, 0xDA	; 218
    27da:	3f e0       	ldi	r19, 0x0F	; 15
    27dc:	49 ec       	ldi	r20, 0xC9	; 201
    27de:	5f eb       	ldi	r21, 0xBF	; 191
    27e0:	0e 94 b1 10 	call	0x2162	; 0x2162 <__addsf3x>
    27e4:	0e 94 d7 13 	call	0x27ae	; 0x27ae <__fp_round>
    27e8:	0f 90       	pop	r0
    27ea:	03 94       	inc	r0
    27ec:	01 fc       	sbrc	r0, 1
    27ee:	90 58       	subi	r25, 0x80	; 128
    27f0:	e1 ee       	ldi	r30, 0xE1	; 225
    27f2:	f0 e0       	ldi	r31, 0x00	; 0
    27f4:	0c 94 8a 13 	jmp	0x2714	; 0x2714 <__fp_powsodd>

000027f8 <__fp_split3>:
    27f8:	57 fd       	sbrc	r21, 7
    27fa:	90 58       	subi	r25, 0x80	; 128
    27fc:	44 0f       	add	r20, r20
    27fe:	55 1f       	adc	r21, r21
    2800:	59 f0       	breq	.+22     	; 0x2818 <__fp_splitA+0x10>
    2802:	5f 3f       	cpi	r21, 0xFF	; 255
    2804:	71 f0       	breq	.+28     	; 0x2822 <__fp_splitA+0x1a>
    2806:	47 95       	ror	r20

00002808 <__fp_splitA>:
    2808:	88 0f       	add	r24, r24
    280a:	97 fb       	bst	r25, 7
    280c:	99 1f       	adc	r25, r25
    280e:	61 f0       	breq	.+24     	; 0x2828 <__fp_splitA+0x20>
    2810:	9f 3f       	cpi	r25, 0xFF	; 255
    2812:	79 f0       	breq	.+30     	; 0x2832 <__fp_splitA+0x2a>
    2814:	87 95       	ror	r24
    2816:	08 95       	ret
    2818:	12 16       	cp	r1, r18
    281a:	13 06       	cpc	r1, r19
    281c:	14 06       	cpc	r1, r20
    281e:	55 1f       	adc	r21, r21
    2820:	f2 cf       	rjmp	.-28     	; 0x2806 <__fp_split3+0xe>
    2822:	46 95       	lsr	r20
    2824:	f1 df       	rcall	.-30     	; 0x2808 <__fp_splitA>
    2826:	08 c0       	rjmp	.+16     	; 0x2838 <__fp_splitA+0x30>
    2828:	16 16       	cp	r1, r22
    282a:	17 06       	cpc	r1, r23
    282c:	18 06       	cpc	r1, r24
    282e:	99 1f       	adc	r25, r25
    2830:	f1 cf       	rjmp	.-30     	; 0x2814 <__fp_splitA+0xc>
    2832:	86 95       	lsr	r24
    2834:	71 05       	cpc	r23, r1
    2836:	61 05       	cpc	r22, r1
    2838:	08 94       	sec
    283a:	08 95       	ret

0000283c <__fp_trunc>:
    283c:	0e 94 04 14 	call	0x2808	; 0x2808 <__fp_splitA>
    2840:	a0 f0       	brcs	.+40     	; 0x286a <__fp_trunc+0x2e>
    2842:	be e7       	ldi	r27, 0x7E	; 126
    2844:	b9 17       	cp	r27, r25
    2846:	88 f4       	brcc	.+34     	; 0x286a <__fp_trunc+0x2e>
    2848:	bb 27       	eor	r27, r27
    284a:	9f 38       	cpi	r25, 0x8F	; 143
    284c:	60 f4       	brcc	.+24     	; 0x2866 <__fp_trunc+0x2a>
    284e:	16 16       	cp	r1, r22
    2850:	b1 1d       	adc	r27, r1
    2852:	67 2f       	mov	r22, r23
    2854:	78 2f       	mov	r23, r24
    2856:	88 27       	eor	r24, r24
    2858:	98 5f       	subi	r25, 0xF8	; 248
    285a:	f7 cf       	rjmp	.-18     	; 0x284a <__fp_trunc+0xe>
    285c:	86 95       	lsr	r24
    285e:	77 95       	ror	r23
    2860:	67 95       	ror	r22
    2862:	b1 1d       	adc	r27, r1
    2864:	93 95       	inc	r25
    2866:	96 39       	cpi	r25, 0x96	; 150
    2868:	c8 f3       	brcs	.-14     	; 0x285c <__fp_trunc+0x20>
    286a:	08 95       	ret

0000286c <__fp_zero>:
    286c:	e8 94       	clt

0000286e <__fp_szero>:
    286e:	bb 27       	eor	r27, r27
    2870:	66 27       	eor	r22, r22
    2872:	77 27       	eor	r23, r23
    2874:	cb 01       	movw	r24, r22
    2876:	97 f9       	bld	r25, 7
    2878:	08 95       	ret

0000287a <__gesf2>:
    287a:	0e 94 0d 13 	call	0x261a	; 0x261a <__fp_cmp>
    287e:	08 f4       	brcc	.+2      	; 0x2882 <__gesf2+0x8>
    2880:	8f ef       	ldi	r24, 0xFF	; 255
    2882:	08 95       	ret

00002884 <inverse>:
    2884:	9b 01       	movw	r18, r22
    2886:	ac 01       	movw	r20, r24
    2888:	60 e0       	ldi	r22, 0x00	; 0
    288a:	70 e0       	ldi	r23, 0x00	; 0
    288c:	80 e8       	ldi	r24, 0x80	; 128
    288e:	9f e3       	ldi	r25, 0x3F	; 63
    2890:	0c 94 9d 11 	jmp	0x233a	; 0x233a <__divsf3>

00002894 <__mulsf3>:
    2894:	0e 94 5d 14 	call	0x28ba	; 0x28ba <__mulsf3x>
    2898:	0c 94 d7 13 	jmp	0x27ae	; 0x27ae <__fp_round>
    289c:	0e 94 9e 13 	call	0x273c	; 0x273c <__fp_pscA>
    28a0:	38 f0       	brcs	.+14     	; 0x28b0 <__mulsf3+0x1c>
    28a2:	0e 94 a5 13 	call	0x274a	; 0x274a <__fp_pscB>
    28a6:	20 f0       	brcs	.+8      	; 0x28b0 <__mulsf3+0x1c>
    28a8:	95 23       	and	r25, r21
    28aa:	11 f0       	breq	.+4      	; 0x28b0 <__mulsf3+0x1c>
    28ac:	0c 94 31 13 	jmp	0x2662	; 0x2662 <__fp_inf>
    28b0:	0c 94 60 13 	jmp	0x26c0	; 0x26c0 <__fp_nan>
    28b4:	11 24       	eor	r1, r1
    28b6:	0c 94 37 14 	jmp	0x286e	; 0x286e <__fp_szero>

000028ba <__mulsf3x>:
    28ba:	0e 94 fc 13 	call	0x27f8	; 0x27f8 <__fp_split3>
    28be:	70 f3       	brcs	.-36     	; 0x289c <__mulsf3+0x8>

000028c0 <__mulsf3_pse>:
    28c0:	95 9f       	mul	r25, r21
    28c2:	c1 f3       	breq	.-16     	; 0x28b4 <__mulsf3+0x20>
    28c4:	95 0f       	add	r25, r21
    28c6:	50 e0       	ldi	r21, 0x00	; 0
    28c8:	55 1f       	adc	r21, r21
    28ca:	62 9f       	mul	r22, r18
    28cc:	f0 01       	movw	r30, r0
    28ce:	72 9f       	mul	r23, r18
    28d0:	bb 27       	eor	r27, r27
    28d2:	f0 0d       	add	r31, r0
    28d4:	b1 1d       	adc	r27, r1
    28d6:	63 9f       	mul	r22, r19
    28d8:	aa 27       	eor	r26, r26
    28da:	f0 0d       	add	r31, r0
    28dc:	b1 1d       	adc	r27, r1
    28de:	aa 1f       	adc	r26, r26
    28e0:	64 9f       	mul	r22, r20
    28e2:	66 27       	eor	r22, r22
    28e4:	b0 0d       	add	r27, r0
    28e6:	a1 1d       	adc	r26, r1
    28e8:	66 1f       	adc	r22, r22
    28ea:	82 9f       	mul	r24, r18
    28ec:	22 27       	eor	r18, r18
    28ee:	b0 0d       	add	r27, r0
    28f0:	a1 1d       	adc	r26, r1
    28f2:	62 1f       	adc	r22, r18
    28f4:	73 9f       	mul	r23, r19
    28f6:	b0 0d       	add	r27, r0
    28f8:	a1 1d       	adc	r26, r1
    28fa:	62 1f       	adc	r22, r18
    28fc:	83 9f       	mul	r24, r19
    28fe:	a0 0d       	add	r26, r0
    2900:	61 1d       	adc	r22, r1
    2902:	22 1f       	adc	r18, r18
    2904:	74 9f       	mul	r23, r20
    2906:	33 27       	eor	r19, r19
    2908:	a0 0d       	add	r26, r0
    290a:	61 1d       	adc	r22, r1
    290c:	23 1f       	adc	r18, r19
    290e:	84 9f       	mul	r24, r20
    2910:	60 0d       	add	r22, r0
    2912:	21 1d       	adc	r18, r1
    2914:	82 2f       	mov	r24, r18
    2916:	76 2f       	mov	r23, r22
    2918:	6a 2f       	mov	r22, r26
    291a:	11 24       	eor	r1, r1
    291c:	9f 57       	subi	r25, 0x7F	; 127
    291e:	50 40       	sbci	r21, 0x00	; 0
    2920:	9a f0       	brmi	.+38     	; 0x2948 <__mulsf3_pse+0x88>
    2922:	f1 f0       	breq	.+60     	; 0x2960 <__mulsf3_pse+0xa0>
    2924:	88 23       	and	r24, r24
    2926:	4a f0       	brmi	.+18     	; 0x293a <__mulsf3_pse+0x7a>
    2928:	ee 0f       	add	r30, r30
    292a:	ff 1f       	adc	r31, r31
    292c:	bb 1f       	adc	r27, r27
    292e:	66 1f       	adc	r22, r22
    2930:	77 1f       	adc	r23, r23
    2932:	88 1f       	adc	r24, r24
    2934:	91 50       	subi	r25, 0x01	; 1
    2936:	50 40       	sbci	r21, 0x00	; 0
    2938:	a9 f7       	brne	.-22     	; 0x2924 <__mulsf3_pse+0x64>
    293a:	9e 3f       	cpi	r25, 0xFE	; 254
    293c:	51 05       	cpc	r21, r1
    293e:	80 f0       	brcs	.+32     	; 0x2960 <__mulsf3_pse+0xa0>
    2940:	0c 94 31 13 	jmp	0x2662	; 0x2662 <__fp_inf>
    2944:	0c 94 37 14 	jmp	0x286e	; 0x286e <__fp_szero>
    2948:	5f 3f       	cpi	r21, 0xFF	; 255
    294a:	e4 f3       	brlt	.-8      	; 0x2944 <__mulsf3_pse+0x84>
    294c:	98 3e       	cpi	r25, 0xE8	; 232
    294e:	d4 f3       	brlt	.-12     	; 0x2944 <__mulsf3_pse+0x84>
    2950:	86 95       	lsr	r24
    2952:	77 95       	ror	r23
    2954:	67 95       	ror	r22
    2956:	b7 95       	ror	r27
    2958:	f7 95       	ror	r31
    295a:	e7 95       	ror	r30
    295c:	9f 5f       	subi	r25, 0xFF	; 255
    295e:	c1 f7       	brne	.-16     	; 0x2950 <__mulsf3_pse+0x90>
    2960:	fe 2b       	or	r31, r30
    2962:	88 0f       	add	r24, r24
    2964:	91 1d       	adc	r25, r1
    2966:	96 95       	lsr	r25
    2968:	87 95       	ror	r24
    296a:	97 f9       	bld	r25, 7
    296c:	08 95       	ret

0000296e <sin>:
    296e:	9f 93       	push	r25
    2970:	0e 94 ae 13 	call	0x275c	; 0x275c <__fp_rempio2>
    2974:	0f 90       	pop	r0
    2976:	07 fc       	sbrc	r0, 7
    2978:	ee 5f       	subi	r30, 0xFE	; 254
    297a:	0c 94 e8 13 	jmp	0x27d0	; 0x27d0 <__fp_sinus>
    297e:	19 f4       	brne	.+6      	; 0x2986 <sin+0x18>
    2980:	16 f4       	brtc	.+4      	; 0x2986 <sin+0x18>
    2982:	0c 94 60 13 	jmp	0x26c0	; 0x26c0 <__fp_nan>
    2986:	0c 94 52 13 	jmp	0x26a4	; 0x26a4 <__fp_mpack>

0000298a <sqrt>:
    298a:	0e 94 04 14 	call	0x2808	; 0x2808 <__fp_splitA>
    298e:	b8 f3       	brcs	.-18     	; 0x297e <sin+0x10>
    2990:	99 23       	and	r25, r25
    2992:	c9 f3       	breq	.-14     	; 0x2986 <sin+0x18>
    2994:	b6 f3       	brts	.-20     	; 0x2982 <sin+0x14>
    2996:	9f 57       	subi	r25, 0x7F	; 127
    2998:	55 0b       	sbc	r21, r21
    299a:	87 ff       	sbrs	r24, 7
    299c:	0e 94 2e 15 	call	0x2a5c	; 0x2a5c <__fp_norm2>
    29a0:	00 24       	eor	r0, r0
    29a2:	a0 e6       	ldi	r26, 0x60	; 96
    29a4:	40 ea       	ldi	r20, 0xA0	; 160
    29a6:	90 01       	movw	r18, r0
    29a8:	80 58       	subi	r24, 0x80	; 128
    29aa:	56 95       	lsr	r21
    29ac:	97 95       	ror	r25
    29ae:	28 f4       	brcc	.+10     	; 0x29ba <sqrt+0x30>
    29b0:	80 5c       	subi	r24, 0xC0	; 192
    29b2:	66 0f       	add	r22, r22
    29b4:	77 1f       	adc	r23, r23
    29b6:	88 1f       	adc	r24, r24
    29b8:	20 f0       	brcs	.+8      	; 0x29c2 <sqrt+0x38>
    29ba:	26 17       	cp	r18, r22
    29bc:	37 07       	cpc	r19, r23
    29be:	48 07       	cpc	r20, r24
    29c0:	30 f4       	brcc	.+12     	; 0x29ce <sqrt+0x44>
    29c2:	62 1b       	sub	r22, r18
    29c4:	73 0b       	sbc	r23, r19
    29c6:	84 0b       	sbc	r24, r20
    29c8:	20 29       	or	r18, r0
    29ca:	31 29       	or	r19, r1
    29cc:	4a 2b       	or	r20, r26
    29ce:	a6 95       	lsr	r26
    29d0:	17 94       	ror	r1
    29d2:	07 94       	ror	r0
    29d4:	20 25       	eor	r18, r0
    29d6:	31 25       	eor	r19, r1
    29d8:	4a 27       	eor	r20, r26
    29da:	58 f7       	brcc	.-42     	; 0x29b2 <sqrt+0x28>
    29dc:	66 0f       	add	r22, r22
    29de:	77 1f       	adc	r23, r23
    29e0:	88 1f       	adc	r24, r24
    29e2:	20 f0       	brcs	.+8      	; 0x29ec <sqrt+0x62>
    29e4:	26 17       	cp	r18, r22
    29e6:	37 07       	cpc	r19, r23
    29e8:	48 07       	cpc	r20, r24
    29ea:	30 f4       	brcc	.+12     	; 0x29f8 <sqrt+0x6e>
    29ec:	62 0b       	sbc	r22, r18
    29ee:	73 0b       	sbc	r23, r19
    29f0:	84 0b       	sbc	r24, r20
    29f2:	20 0d       	add	r18, r0
    29f4:	31 1d       	adc	r19, r1
    29f6:	41 1d       	adc	r20, r1
    29f8:	a0 95       	com	r26
    29fa:	81 f7       	brne	.-32     	; 0x29dc <sqrt+0x52>
    29fc:	b9 01       	movw	r22, r18
    29fe:	84 2f       	mov	r24, r20
    2a00:	91 58       	subi	r25, 0x81	; 129
    2a02:	88 0f       	add	r24, r24
    2a04:	96 95       	lsr	r25
    2a06:	87 95       	ror	r24
    2a08:	08 95       	ret

00002a0a <square>:
    2a0a:	9b 01       	movw	r18, r22
    2a0c:	ac 01       	movw	r20, r24
    2a0e:	0c 94 4a 14 	jmp	0x2894	; 0x2894 <__mulsf3>

00002a12 <tan>:
    2a12:	df 93       	push	r29
    2a14:	d9 2f       	mov	r29, r25
    2a16:	0e 94 ae 13 	call	0x275c	; 0x275c <__fp_rempio2>
    2a1a:	e6 95       	lsr	r30
    2a1c:	d7 95       	ror	r29
    2a1e:	2a ed       	ldi	r18, 0xDA	; 218
    2a20:	3f e0       	ldi	r19, 0x0F	; 15
    2a22:	49 e4       	ldi	r20, 0x49	; 73
    2a24:	5f e3       	ldi	r21, 0x3F	; 63
    2a26:	b3 3a       	cpi	r27, 0xA3	; 163
    2a28:	62 07       	cpc	r22, r18
    2a2a:	73 07       	cpc	r23, r19
    2a2c:	84 07       	cpc	r24, r20
    2a2e:	95 07       	cpc	r25, r21
    2a30:	d7 95       	ror	r29
    2a32:	3a f0       	brmi	.+14     	; 0x2a42 <tan+0x30>
    2a34:	a2 ea       	ldi	r26, 0xA2	; 162
    2a36:	49 ec       	ldi	r20, 0xC9	; 201
    2a38:	90 68       	ori	r25, 0x80	; 128
    2a3a:	0e 94 b1 10 	call	0x2162	; 0x2162 <__addsf3x>
    2a3e:	0e 94 d7 13 	call	0x27ae	; 0x27ae <__fp_round>
    2a42:	ef ef       	ldi	r30, 0xFF	; 255
    2a44:	f0 e0       	ldi	r31, 0x00	; 0
    2a46:	0e 94 8a 13 	call	0x2714	; 0x2714 <__fp_powsodd>
    2a4a:	dd 0f       	add	r29, r29
    2a4c:	13 f0       	brvs	.+4      	; 0x2a52 <tan+0x40>
    2a4e:	0e 94 42 14 	call	0x2884	; 0x2884 <inverse>
    2a52:	dd 0f       	add	r29, r29
    2a54:	0b f4       	brvc	.+2      	; 0x2a58 <tan+0x46>
    2a56:	90 58       	subi	r25, 0x80	; 128
    2a58:	df 91       	pop	r29
    2a5a:	08 95       	ret

00002a5c <__fp_norm2>:
    2a5c:	91 50       	subi	r25, 0x01	; 1
    2a5e:	50 40       	sbci	r21, 0x00	; 0
    2a60:	66 0f       	add	r22, r22
    2a62:	77 1f       	adc	r23, r23
    2a64:	88 1f       	adc	r24, r24
    2a66:	d2 f7       	brpl	.-12     	; 0x2a5c <__fp_norm2>
    2a68:	08 95       	ret

00002a6a <vfprintf>:
    2a6a:	a0 e1       	ldi	r26, 0x10	; 16
    2a6c:	b0 e0       	ldi	r27, 0x00	; 0
    2a6e:	eb e3       	ldi	r30, 0x3B	; 59
    2a70:	f5 e1       	ldi	r31, 0x15	; 21
    2a72:	0c 94 16 19 	jmp	0x322c	; 0x322c <__prologue_saves__>
    2a76:	7c 01       	movw	r14, r24
    2a78:	1b 01       	movw	r2, r22
    2a7a:	6a 01       	movw	r12, r20
    2a7c:	fc 01       	movw	r30, r24
    2a7e:	16 82       	std	Z+6, r1	; 0x06
    2a80:	17 82       	std	Z+7, r1	; 0x07
    2a82:	83 81       	ldd	r24, Z+3	; 0x03
    2a84:	81 ff       	sbrs	r24, 1
    2a86:	44 c3       	rjmp	.+1672   	; 0x3110 <vfprintf+0x6a6>
    2a88:	9e 01       	movw	r18, r28
    2a8a:	2f 5f       	subi	r18, 0xFF	; 255
    2a8c:	3f 4f       	sbci	r19, 0xFF	; 255
    2a8e:	39 01       	movw	r6, r18
    2a90:	f7 01       	movw	r30, r14
    2a92:	93 81       	ldd	r25, Z+3	; 0x03
    2a94:	f1 01       	movw	r30, r2
    2a96:	93 fd       	sbrc	r25, 3
    2a98:	85 91       	lpm	r24, Z+
    2a9a:	93 ff       	sbrs	r25, 3
    2a9c:	81 91       	ld	r24, Z+
    2a9e:	1f 01       	movw	r2, r30
    2aa0:	88 23       	and	r24, r24
    2aa2:	09 f4       	brne	.+2      	; 0x2aa6 <vfprintf+0x3c>
    2aa4:	31 c3       	rjmp	.+1634   	; 0x3108 <vfprintf+0x69e>
    2aa6:	85 32       	cpi	r24, 0x25	; 37
    2aa8:	39 f4       	brne	.+14     	; 0x2ab8 <vfprintf+0x4e>
    2aaa:	93 fd       	sbrc	r25, 3
    2aac:	85 91       	lpm	r24, Z+
    2aae:	93 ff       	sbrs	r25, 3
    2ab0:	81 91       	ld	r24, Z+
    2ab2:	1f 01       	movw	r2, r30
    2ab4:	85 32       	cpi	r24, 0x25	; 37
    2ab6:	39 f4       	brne	.+14     	; 0x2ac6 <vfprintf+0x5c>
    2ab8:	b7 01       	movw	r22, r14
    2aba:	90 e0       	ldi	r25, 0x00	; 0
    2abc:	0e 94 49 1a 	call	0x3492	; 0x3492 <fputc>
    2ac0:	56 01       	movw	r10, r12
    2ac2:	65 01       	movw	r12, r10
    2ac4:	e5 cf       	rjmp	.-54     	; 0x2a90 <vfprintf+0x26>
    2ac6:	10 e0       	ldi	r17, 0x00	; 0
    2ac8:	51 2c       	mov	r5, r1
    2aca:	91 2c       	mov	r9, r1
    2acc:	ff e1       	ldi	r31, 0x1F	; 31
    2ace:	f9 15       	cp	r31, r9
    2ad0:	d8 f0       	brcs	.+54     	; 0x2b08 <vfprintf+0x9e>
    2ad2:	8b 32       	cpi	r24, 0x2B	; 43
    2ad4:	79 f0       	breq	.+30     	; 0x2af4 <vfprintf+0x8a>
    2ad6:	38 f4       	brcc	.+14     	; 0x2ae6 <vfprintf+0x7c>
    2ad8:	80 32       	cpi	r24, 0x20	; 32
    2ada:	79 f0       	breq	.+30     	; 0x2afa <vfprintf+0x90>
    2adc:	83 32       	cpi	r24, 0x23	; 35
    2ade:	a1 f4       	brne	.+40     	; 0x2b08 <vfprintf+0x9e>
    2ae0:	f9 2d       	mov	r31, r9
    2ae2:	f0 61       	ori	r31, 0x10	; 16
    2ae4:	2e c0       	rjmp	.+92     	; 0x2b42 <vfprintf+0xd8>
    2ae6:	8d 32       	cpi	r24, 0x2D	; 45
    2ae8:	61 f0       	breq	.+24     	; 0x2b02 <vfprintf+0x98>
    2aea:	80 33       	cpi	r24, 0x30	; 48
    2aec:	69 f4       	brne	.+26     	; 0x2b08 <vfprintf+0x9e>
    2aee:	29 2d       	mov	r18, r9
    2af0:	21 60       	ori	r18, 0x01	; 1
    2af2:	2d c0       	rjmp	.+90     	; 0x2b4e <vfprintf+0xe4>
    2af4:	39 2d       	mov	r19, r9
    2af6:	32 60       	ori	r19, 0x02	; 2
    2af8:	93 2e       	mov	r9, r19
    2afa:	89 2d       	mov	r24, r9
    2afc:	84 60       	ori	r24, 0x04	; 4
    2afe:	98 2e       	mov	r9, r24
    2b00:	2a c0       	rjmp	.+84     	; 0x2b56 <vfprintf+0xec>
    2b02:	e9 2d       	mov	r30, r9
    2b04:	e8 60       	ori	r30, 0x08	; 8
    2b06:	15 c0       	rjmp	.+42     	; 0x2b32 <vfprintf+0xc8>
    2b08:	97 fc       	sbrc	r9, 7
    2b0a:	2d c0       	rjmp	.+90     	; 0x2b66 <vfprintf+0xfc>
    2b0c:	20 ed       	ldi	r18, 0xD0	; 208
    2b0e:	28 0f       	add	r18, r24
    2b10:	2a 30       	cpi	r18, 0x0A	; 10
    2b12:	88 f4       	brcc	.+34     	; 0x2b36 <vfprintf+0xcc>
    2b14:	96 fe       	sbrs	r9, 6
    2b16:	06 c0       	rjmp	.+12     	; 0x2b24 <vfprintf+0xba>
    2b18:	3a e0       	ldi	r19, 0x0A	; 10
    2b1a:	13 9f       	mul	r17, r19
    2b1c:	20 0d       	add	r18, r0
    2b1e:	11 24       	eor	r1, r1
    2b20:	12 2f       	mov	r17, r18
    2b22:	19 c0       	rjmp	.+50     	; 0x2b56 <vfprintf+0xec>
    2b24:	8a e0       	ldi	r24, 0x0A	; 10
    2b26:	58 9e       	mul	r5, r24
    2b28:	20 0d       	add	r18, r0
    2b2a:	11 24       	eor	r1, r1
    2b2c:	52 2e       	mov	r5, r18
    2b2e:	e9 2d       	mov	r30, r9
    2b30:	e0 62       	ori	r30, 0x20	; 32
    2b32:	9e 2e       	mov	r9, r30
    2b34:	10 c0       	rjmp	.+32     	; 0x2b56 <vfprintf+0xec>
    2b36:	8e 32       	cpi	r24, 0x2E	; 46
    2b38:	31 f4       	brne	.+12     	; 0x2b46 <vfprintf+0xdc>
    2b3a:	96 fc       	sbrc	r9, 6
    2b3c:	e5 c2       	rjmp	.+1482   	; 0x3108 <vfprintf+0x69e>
    2b3e:	f9 2d       	mov	r31, r9
    2b40:	f0 64       	ori	r31, 0x40	; 64
    2b42:	9f 2e       	mov	r9, r31
    2b44:	08 c0       	rjmp	.+16     	; 0x2b56 <vfprintf+0xec>
    2b46:	8c 36       	cpi	r24, 0x6C	; 108
    2b48:	21 f4       	brne	.+8      	; 0x2b52 <vfprintf+0xe8>
    2b4a:	29 2d       	mov	r18, r9
    2b4c:	20 68       	ori	r18, 0x80	; 128
    2b4e:	92 2e       	mov	r9, r18
    2b50:	02 c0       	rjmp	.+4      	; 0x2b56 <vfprintf+0xec>
    2b52:	88 36       	cpi	r24, 0x68	; 104
    2b54:	41 f4       	brne	.+16     	; 0x2b66 <vfprintf+0xfc>
    2b56:	f1 01       	movw	r30, r2
    2b58:	93 fd       	sbrc	r25, 3
    2b5a:	85 91       	lpm	r24, Z+
    2b5c:	93 ff       	sbrs	r25, 3
    2b5e:	81 91       	ld	r24, Z+
    2b60:	1f 01       	movw	r2, r30
    2b62:	81 11       	cpse	r24, r1
    2b64:	b3 cf       	rjmp	.-154    	; 0x2acc <vfprintf+0x62>
    2b66:	9b eb       	ldi	r25, 0xBB	; 187
    2b68:	98 0f       	add	r25, r24
    2b6a:	93 30       	cpi	r25, 0x03	; 3
    2b6c:	20 f4       	brcc	.+8      	; 0x2b76 <vfprintf+0x10c>
    2b6e:	99 2d       	mov	r25, r9
    2b70:	90 61       	ori	r25, 0x10	; 16
    2b72:	80 5e       	subi	r24, 0xE0	; 224
    2b74:	07 c0       	rjmp	.+14     	; 0x2b84 <vfprintf+0x11a>
    2b76:	9b e9       	ldi	r25, 0x9B	; 155
    2b78:	98 0f       	add	r25, r24
    2b7a:	93 30       	cpi	r25, 0x03	; 3
    2b7c:	08 f0       	brcs	.+2      	; 0x2b80 <vfprintf+0x116>
    2b7e:	66 c1       	rjmp	.+716    	; 0x2e4c <vfprintf+0x3e2>
    2b80:	99 2d       	mov	r25, r9
    2b82:	9f 7e       	andi	r25, 0xEF	; 239
    2b84:	96 ff       	sbrs	r25, 6
    2b86:	16 e0       	ldi	r17, 0x06	; 6
    2b88:	9f 73       	andi	r25, 0x3F	; 63
    2b8a:	99 2e       	mov	r9, r25
    2b8c:	85 36       	cpi	r24, 0x65	; 101
    2b8e:	19 f4       	brne	.+6      	; 0x2b96 <vfprintf+0x12c>
    2b90:	90 64       	ori	r25, 0x40	; 64
    2b92:	99 2e       	mov	r9, r25
    2b94:	08 c0       	rjmp	.+16     	; 0x2ba6 <vfprintf+0x13c>
    2b96:	86 36       	cpi	r24, 0x66	; 102
    2b98:	21 f4       	brne	.+8      	; 0x2ba2 <vfprintf+0x138>
    2b9a:	39 2f       	mov	r19, r25
    2b9c:	30 68       	ori	r19, 0x80	; 128
    2b9e:	93 2e       	mov	r9, r19
    2ba0:	02 c0       	rjmp	.+4      	; 0x2ba6 <vfprintf+0x13c>
    2ba2:	11 11       	cpse	r17, r1
    2ba4:	11 50       	subi	r17, 0x01	; 1
    2ba6:	97 fe       	sbrs	r9, 7
    2ba8:	07 c0       	rjmp	.+14     	; 0x2bb8 <vfprintf+0x14e>
    2baa:	1c 33       	cpi	r17, 0x3C	; 60
    2bac:	50 f4       	brcc	.+20     	; 0x2bc2 <vfprintf+0x158>
    2bae:	44 24       	eor	r4, r4
    2bb0:	43 94       	inc	r4
    2bb2:	41 0e       	add	r4, r17
    2bb4:	27 e0       	ldi	r18, 0x07	; 7
    2bb6:	0b c0       	rjmp	.+22     	; 0x2bce <vfprintf+0x164>
    2bb8:	18 30       	cpi	r17, 0x08	; 8
    2bba:	38 f0       	brcs	.+14     	; 0x2bca <vfprintf+0x160>
    2bbc:	27 e0       	ldi	r18, 0x07	; 7
    2bbe:	17 e0       	ldi	r17, 0x07	; 7
    2bc0:	05 c0       	rjmp	.+10     	; 0x2bcc <vfprintf+0x162>
    2bc2:	27 e0       	ldi	r18, 0x07	; 7
    2bc4:	9c e3       	ldi	r25, 0x3C	; 60
    2bc6:	49 2e       	mov	r4, r25
    2bc8:	02 c0       	rjmp	.+4      	; 0x2bce <vfprintf+0x164>
    2bca:	21 2f       	mov	r18, r17
    2bcc:	41 2c       	mov	r4, r1
    2bce:	56 01       	movw	r10, r12
    2bd0:	84 e0       	ldi	r24, 0x04	; 4
    2bd2:	a8 0e       	add	r10, r24
    2bd4:	b1 1c       	adc	r11, r1
    2bd6:	f6 01       	movw	r30, r12
    2bd8:	60 81       	ld	r22, Z
    2bda:	71 81       	ldd	r23, Z+1	; 0x01
    2bdc:	82 81       	ldd	r24, Z+2	; 0x02
    2bde:	93 81       	ldd	r25, Z+3	; 0x03
    2be0:	04 2d       	mov	r16, r4
    2be2:	a3 01       	movw	r20, r6
    2be4:	0e 94 5b 19 	call	0x32b6	; 0x32b6 <__ftoa_engine>
    2be8:	6c 01       	movw	r12, r24
    2bea:	f9 81       	ldd	r31, Y+1	; 0x01
    2bec:	fc 87       	std	Y+12, r31	; 0x0c
    2bee:	f0 ff       	sbrs	r31, 0
    2bf0:	02 c0       	rjmp	.+4      	; 0x2bf6 <vfprintf+0x18c>
    2bf2:	f3 ff       	sbrs	r31, 3
    2bf4:	06 c0       	rjmp	.+12     	; 0x2c02 <vfprintf+0x198>
    2bf6:	91 fc       	sbrc	r9, 1
    2bf8:	06 c0       	rjmp	.+12     	; 0x2c06 <vfprintf+0x19c>
    2bfa:	92 fe       	sbrs	r9, 2
    2bfc:	06 c0       	rjmp	.+12     	; 0x2c0a <vfprintf+0x1a0>
    2bfe:	00 e2       	ldi	r16, 0x20	; 32
    2c00:	05 c0       	rjmp	.+10     	; 0x2c0c <vfprintf+0x1a2>
    2c02:	0d e2       	ldi	r16, 0x2D	; 45
    2c04:	03 c0       	rjmp	.+6      	; 0x2c0c <vfprintf+0x1a2>
    2c06:	0b e2       	ldi	r16, 0x2B	; 43
    2c08:	01 c0       	rjmp	.+2      	; 0x2c0c <vfprintf+0x1a2>
    2c0a:	00 e0       	ldi	r16, 0x00	; 0
    2c0c:	8c 85       	ldd	r24, Y+12	; 0x0c
    2c0e:	8c 70       	andi	r24, 0x0C	; 12
    2c10:	19 f0       	breq	.+6      	; 0x2c18 <vfprintf+0x1ae>
    2c12:	01 11       	cpse	r16, r1
    2c14:	5a c2       	rjmp	.+1204   	; 0x30ca <vfprintf+0x660>
    2c16:	9b c2       	rjmp	.+1334   	; 0x314e <vfprintf+0x6e4>
    2c18:	97 fe       	sbrs	r9, 7
    2c1a:	10 c0       	rjmp	.+32     	; 0x2c3c <vfprintf+0x1d2>
    2c1c:	4c 0c       	add	r4, r12
    2c1e:	fc 85       	ldd	r31, Y+12	; 0x0c
    2c20:	f4 ff       	sbrs	r31, 4
    2c22:	04 c0       	rjmp	.+8      	; 0x2c2c <vfprintf+0x1c2>
    2c24:	8a 81       	ldd	r24, Y+2	; 0x02
    2c26:	81 33       	cpi	r24, 0x31	; 49
    2c28:	09 f4       	brne	.+2      	; 0x2c2c <vfprintf+0x1c2>
    2c2a:	4a 94       	dec	r4
    2c2c:	14 14       	cp	r1, r4
    2c2e:	74 f5       	brge	.+92     	; 0x2c8c <vfprintf+0x222>
    2c30:	28 e0       	ldi	r18, 0x08	; 8
    2c32:	24 15       	cp	r18, r4
    2c34:	78 f5       	brcc	.+94     	; 0x2c94 <vfprintf+0x22a>
    2c36:	88 e0       	ldi	r24, 0x08	; 8
    2c38:	48 2e       	mov	r4, r24
    2c3a:	2c c0       	rjmp	.+88     	; 0x2c94 <vfprintf+0x22a>
    2c3c:	96 fc       	sbrc	r9, 6
    2c3e:	2a c0       	rjmp	.+84     	; 0x2c94 <vfprintf+0x22a>
    2c40:	81 2f       	mov	r24, r17
    2c42:	90 e0       	ldi	r25, 0x00	; 0
    2c44:	8c 15       	cp	r24, r12
    2c46:	9d 05       	cpc	r25, r13
    2c48:	9c f0       	brlt	.+38     	; 0x2c70 <vfprintf+0x206>
    2c4a:	3c ef       	ldi	r19, 0xFC	; 252
    2c4c:	c3 16       	cp	r12, r19
    2c4e:	3f ef       	ldi	r19, 0xFF	; 255
    2c50:	d3 06       	cpc	r13, r19
    2c52:	74 f0       	brlt	.+28     	; 0x2c70 <vfprintf+0x206>
    2c54:	89 2d       	mov	r24, r9
    2c56:	80 68       	ori	r24, 0x80	; 128
    2c58:	98 2e       	mov	r9, r24
    2c5a:	0a c0       	rjmp	.+20     	; 0x2c70 <vfprintf+0x206>
    2c5c:	e2 e0       	ldi	r30, 0x02	; 2
    2c5e:	f0 e0       	ldi	r31, 0x00	; 0
    2c60:	ec 0f       	add	r30, r28
    2c62:	fd 1f       	adc	r31, r29
    2c64:	e1 0f       	add	r30, r17
    2c66:	f1 1d       	adc	r31, r1
    2c68:	80 81       	ld	r24, Z
    2c6a:	80 33       	cpi	r24, 0x30	; 48
    2c6c:	19 f4       	brne	.+6      	; 0x2c74 <vfprintf+0x20a>
    2c6e:	11 50       	subi	r17, 0x01	; 1
    2c70:	11 11       	cpse	r17, r1
    2c72:	f4 cf       	rjmp	.-24     	; 0x2c5c <vfprintf+0x1f2>
    2c74:	97 fe       	sbrs	r9, 7
    2c76:	0e c0       	rjmp	.+28     	; 0x2c94 <vfprintf+0x22a>
    2c78:	44 24       	eor	r4, r4
    2c7a:	43 94       	inc	r4
    2c7c:	41 0e       	add	r4, r17
    2c7e:	81 2f       	mov	r24, r17
    2c80:	90 e0       	ldi	r25, 0x00	; 0
    2c82:	c8 16       	cp	r12, r24
    2c84:	d9 06       	cpc	r13, r25
    2c86:	2c f4       	brge	.+10     	; 0x2c92 <vfprintf+0x228>
    2c88:	1c 19       	sub	r17, r12
    2c8a:	04 c0       	rjmp	.+8      	; 0x2c94 <vfprintf+0x22a>
    2c8c:	44 24       	eor	r4, r4
    2c8e:	43 94       	inc	r4
    2c90:	01 c0       	rjmp	.+2      	; 0x2c94 <vfprintf+0x22a>
    2c92:	10 e0       	ldi	r17, 0x00	; 0
    2c94:	97 fe       	sbrs	r9, 7
    2c96:	06 c0       	rjmp	.+12     	; 0x2ca4 <vfprintf+0x23a>
    2c98:	1c 14       	cp	r1, r12
    2c9a:	1d 04       	cpc	r1, r13
    2c9c:	34 f4       	brge	.+12     	; 0x2caa <vfprintf+0x240>
    2c9e:	c6 01       	movw	r24, r12
    2ca0:	01 96       	adiw	r24, 0x01	; 1
    2ca2:	05 c0       	rjmp	.+10     	; 0x2cae <vfprintf+0x244>
    2ca4:	85 e0       	ldi	r24, 0x05	; 5
    2ca6:	90 e0       	ldi	r25, 0x00	; 0
    2ca8:	02 c0       	rjmp	.+4      	; 0x2cae <vfprintf+0x244>
    2caa:	81 e0       	ldi	r24, 0x01	; 1
    2cac:	90 e0       	ldi	r25, 0x00	; 0
    2cae:	01 11       	cpse	r16, r1
    2cb0:	01 96       	adiw	r24, 0x01	; 1
    2cb2:	11 23       	and	r17, r17
    2cb4:	31 f0       	breq	.+12     	; 0x2cc2 <vfprintf+0x258>
    2cb6:	21 2f       	mov	r18, r17
    2cb8:	30 e0       	ldi	r19, 0x00	; 0
    2cba:	2f 5f       	subi	r18, 0xFF	; 255
    2cbc:	3f 4f       	sbci	r19, 0xFF	; 255
    2cbe:	82 0f       	add	r24, r18
    2cc0:	93 1f       	adc	r25, r19
    2cc2:	25 2d       	mov	r18, r5
    2cc4:	30 e0       	ldi	r19, 0x00	; 0
    2cc6:	82 17       	cp	r24, r18
    2cc8:	93 07       	cpc	r25, r19
    2cca:	14 f4       	brge	.+4      	; 0x2cd0 <vfprintf+0x266>
    2ccc:	58 1a       	sub	r5, r24
    2cce:	01 c0       	rjmp	.+2      	; 0x2cd2 <vfprintf+0x268>
    2cd0:	51 2c       	mov	r5, r1
    2cd2:	89 2d       	mov	r24, r9
    2cd4:	89 70       	andi	r24, 0x09	; 9
    2cd6:	49 f4       	brne	.+18     	; 0x2cea <vfprintf+0x280>
    2cd8:	55 20       	and	r5, r5
    2cda:	39 f0       	breq	.+14     	; 0x2cea <vfprintf+0x280>
    2cdc:	b7 01       	movw	r22, r14
    2cde:	80 e2       	ldi	r24, 0x20	; 32
    2ce0:	90 e0       	ldi	r25, 0x00	; 0
    2ce2:	0e 94 49 1a 	call	0x3492	; 0x3492 <fputc>
    2ce6:	5a 94       	dec	r5
    2ce8:	f7 cf       	rjmp	.-18     	; 0x2cd8 <vfprintf+0x26e>
    2cea:	00 23       	and	r16, r16
    2cec:	29 f0       	breq	.+10     	; 0x2cf8 <vfprintf+0x28e>
    2cee:	b7 01       	movw	r22, r14
    2cf0:	80 2f       	mov	r24, r16
    2cf2:	90 e0       	ldi	r25, 0x00	; 0
    2cf4:	0e 94 49 1a 	call	0x3492	; 0x3492 <fputc>
    2cf8:	93 fc       	sbrc	r9, 3
    2cfa:	09 c0       	rjmp	.+18     	; 0x2d0e <vfprintf+0x2a4>
    2cfc:	55 20       	and	r5, r5
    2cfe:	39 f0       	breq	.+14     	; 0x2d0e <vfprintf+0x2a4>
    2d00:	b7 01       	movw	r22, r14
    2d02:	80 e3       	ldi	r24, 0x30	; 48
    2d04:	90 e0       	ldi	r25, 0x00	; 0
    2d06:	0e 94 49 1a 	call	0x3492	; 0x3492 <fputc>
    2d0a:	5a 94       	dec	r5
    2d0c:	f7 cf       	rjmp	.-18     	; 0x2cfc <vfprintf+0x292>
    2d0e:	97 fe       	sbrs	r9, 7
    2d10:	4c c0       	rjmp	.+152    	; 0x2daa <vfprintf+0x340>
    2d12:	46 01       	movw	r8, r12
    2d14:	d7 fe       	sbrs	r13, 7
    2d16:	02 c0       	rjmp	.+4      	; 0x2d1c <vfprintf+0x2b2>
    2d18:	81 2c       	mov	r8, r1
    2d1a:	91 2c       	mov	r9, r1
    2d1c:	c6 01       	movw	r24, r12
    2d1e:	88 19       	sub	r24, r8
    2d20:	99 09       	sbc	r25, r9
    2d22:	f3 01       	movw	r30, r6
    2d24:	e8 0f       	add	r30, r24
    2d26:	f9 1f       	adc	r31, r25
    2d28:	ed 87       	std	Y+13, r30	; 0x0d
    2d2a:	fe 87       	std	Y+14, r31	; 0x0e
    2d2c:	96 01       	movw	r18, r12
    2d2e:	24 19       	sub	r18, r4
    2d30:	31 09       	sbc	r19, r1
    2d32:	2f 87       	std	Y+15, r18	; 0x0f
    2d34:	38 8b       	std	Y+16, r19	; 0x10
    2d36:	01 2f       	mov	r16, r17
    2d38:	10 e0       	ldi	r17, 0x00	; 0
    2d3a:	11 95       	neg	r17
    2d3c:	01 95       	neg	r16
    2d3e:	11 09       	sbc	r17, r1
    2d40:	3f ef       	ldi	r19, 0xFF	; 255
    2d42:	83 16       	cp	r8, r19
    2d44:	93 06       	cpc	r9, r19
    2d46:	29 f4       	brne	.+10     	; 0x2d52 <vfprintf+0x2e8>
    2d48:	b7 01       	movw	r22, r14
    2d4a:	8e e2       	ldi	r24, 0x2E	; 46
    2d4c:	90 e0       	ldi	r25, 0x00	; 0
    2d4e:	0e 94 49 1a 	call	0x3492	; 0x3492 <fputc>
    2d52:	c8 14       	cp	r12, r8
    2d54:	d9 04       	cpc	r13, r9
    2d56:	4c f0       	brlt	.+18     	; 0x2d6a <vfprintf+0x300>
    2d58:	8f 85       	ldd	r24, Y+15	; 0x0f
    2d5a:	98 89       	ldd	r25, Y+16	; 0x10
    2d5c:	88 15       	cp	r24, r8
    2d5e:	99 05       	cpc	r25, r9
    2d60:	24 f4       	brge	.+8      	; 0x2d6a <vfprintf+0x300>
    2d62:	ed 85       	ldd	r30, Y+13	; 0x0d
    2d64:	fe 85       	ldd	r31, Y+14	; 0x0e
    2d66:	81 81       	ldd	r24, Z+1	; 0x01
    2d68:	01 c0       	rjmp	.+2      	; 0x2d6c <vfprintf+0x302>
    2d6a:	80 e3       	ldi	r24, 0x30	; 48
    2d6c:	f1 e0       	ldi	r31, 0x01	; 1
    2d6e:	8f 1a       	sub	r8, r31
    2d70:	91 08       	sbc	r9, r1
    2d72:	2d 85       	ldd	r18, Y+13	; 0x0d
    2d74:	3e 85       	ldd	r19, Y+14	; 0x0e
    2d76:	2f 5f       	subi	r18, 0xFF	; 255
    2d78:	3f 4f       	sbci	r19, 0xFF	; 255
    2d7a:	2d 87       	std	Y+13, r18	; 0x0d
    2d7c:	3e 87       	std	Y+14, r19	; 0x0e
    2d7e:	80 16       	cp	r8, r16
    2d80:	91 06       	cpc	r9, r17
    2d82:	2c f0       	brlt	.+10     	; 0x2d8e <vfprintf+0x324>
    2d84:	b7 01       	movw	r22, r14
    2d86:	90 e0       	ldi	r25, 0x00	; 0
    2d88:	0e 94 49 1a 	call	0x3492	; 0x3492 <fputc>
    2d8c:	d9 cf       	rjmp	.-78     	; 0x2d40 <vfprintf+0x2d6>
    2d8e:	c8 14       	cp	r12, r8
    2d90:	d9 04       	cpc	r13, r9
    2d92:	41 f4       	brne	.+16     	; 0x2da4 <vfprintf+0x33a>
    2d94:	9a 81       	ldd	r25, Y+2	; 0x02
    2d96:	96 33       	cpi	r25, 0x36	; 54
    2d98:	20 f4       	brcc	.+8      	; 0x2da2 <vfprintf+0x338>
    2d9a:	95 33       	cpi	r25, 0x35	; 53
    2d9c:	19 f4       	brne	.+6      	; 0x2da4 <vfprintf+0x33a>
    2d9e:	3c 85       	ldd	r19, Y+12	; 0x0c
    2da0:	34 ff       	sbrs	r19, 4
    2da2:	81 e3       	ldi	r24, 0x31	; 49
    2da4:	b7 01       	movw	r22, r14
    2da6:	90 e0       	ldi	r25, 0x00	; 0
    2da8:	4e c0       	rjmp	.+156    	; 0x2e46 <vfprintf+0x3dc>
    2daa:	8a 81       	ldd	r24, Y+2	; 0x02
    2dac:	81 33       	cpi	r24, 0x31	; 49
    2dae:	19 f0       	breq	.+6      	; 0x2db6 <vfprintf+0x34c>
    2db0:	9c 85       	ldd	r25, Y+12	; 0x0c
    2db2:	9f 7e       	andi	r25, 0xEF	; 239
    2db4:	9c 87       	std	Y+12, r25	; 0x0c
    2db6:	b7 01       	movw	r22, r14
    2db8:	90 e0       	ldi	r25, 0x00	; 0
    2dba:	0e 94 49 1a 	call	0x3492	; 0x3492 <fputc>
    2dbe:	11 11       	cpse	r17, r1
    2dc0:	05 c0       	rjmp	.+10     	; 0x2dcc <vfprintf+0x362>
    2dc2:	94 fc       	sbrc	r9, 4
    2dc4:	18 c0       	rjmp	.+48     	; 0x2df6 <vfprintf+0x38c>
    2dc6:	85 e6       	ldi	r24, 0x65	; 101
    2dc8:	90 e0       	ldi	r25, 0x00	; 0
    2dca:	17 c0       	rjmp	.+46     	; 0x2dfa <vfprintf+0x390>
    2dcc:	b7 01       	movw	r22, r14
    2dce:	8e e2       	ldi	r24, 0x2E	; 46
    2dd0:	90 e0       	ldi	r25, 0x00	; 0
    2dd2:	0e 94 49 1a 	call	0x3492	; 0x3492 <fputc>
    2dd6:	1e 5f       	subi	r17, 0xFE	; 254
    2dd8:	82 e0       	ldi	r24, 0x02	; 2
    2dda:	01 e0       	ldi	r16, 0x01	; 1
    2ddc:	08 0f       	add	r16, r24
    2dde:	f3 01       	movw	r30, r6
    2de0:	e8 0f       	add	r30, r24
    2de2:	f1 1d       	adc	r31, r1
    2de4:	80 81       	ld	r24, Z
    2de6:	b7 01       	movw	r22, r14
    2de8:	90 e0       	ldi	r25, 0x00	; 0
    2dea:	0e 94 49 1a 	call	0x3492	; 0x3492 <fputc>
    2dee:	80 2f       	mov	r24, r16
    2df0:	01 13       	cpse	r16, r17
    2df2:	f3 cf       	rjmp	.-26     	; 0x2dda <vfprintf+0x370>
    2df4:	e6 cf       	rjmp	.-52     	; 0x2dc2 <vfprintf+0x358>
    2df6:	85 e4       	ldi	r24, 0x45	; 69
    2df8:	90 e0       	ldi	r25, 0x00	; 0
    2dfa:	b7 01       	movw	r22, r14
    2dfc:	0e 94 49 1a 	call	0x3492	; 0x3492 <fputc>
    2e00:	d7 fc       	sbrc	r13, 7
    2e02:	06 c0       	rjmp	.+12     	; 0x2e10 <vfprintf+0x3a6>
    2e04:	c1 14       	cp	r12, r1
    2e06:	d1 04       	cpc	r13, r1
    2e08:	41 f4       	brne	.+16     	; 0x2e1a <vfprintf+0x3b0>
    2e0a:	ec 85       	ldd	r30, Y+12	; 0x0c
    2e0c:	e4 ff       	sbrs	r30, 4
    2e0e:	05 c0       	rjmp	.+10     	; 0x2e1a <vfprintf+0x3b0>
    2e10:	d1 94       	neg	r13
    2e12:	c1 94       	neg	r12
    2e14:	d1 08       	sbc	r13, r1
    2e16:	8d e2       	ldi	r24, 0x2D	; 45
    2e18:	01 c0       	rjmp	.+2      	; 0x2e1c <vfprintf+0x3b2>
    2e1a:	8b e2       	ldi	r24, 0x2B	; 43
    2e1c:	b7 01       	movw	r22, r14
    2e1e:	90 e0       	ldi	r25, 0x00	; 0
    2e20:	0e 94 49 1a 	call	0x3492	; 0x3492 <fputc>
    2e24:	80 e3       	ldi	r24, 0x30	; 48
    2e26:	2a e0       	ldi	r18, 0x0A	; 10
    2e28:	c2 16       	cp	r12, r18
    2e2a:	d1 04       	cpc	r13, r1
    2e2c:	2c f0       	brlt	.+10     	; 0x2e38 <vfprintf+0x3ce>
    2e2e:	8f 5f       	subi	r24, 0xFF	; 255
    2e30:	fa e0       	ldi	r31, 0x0A	; 10
    2e32:	cf 1a       	sub	r12, r31
    2e34:	d1 08       	sbc	r13, r1
    2e36:	f7 cf       	rjmp	.-18     	; 0x2e26 <vfprintf+0x3bc>
    2e38:	b7 01       	movw	r22, r14
    2e3a:	90 e0       	ldi	r25, 0x00	; 0
    2e3c:	0e 94 49 1a 	call	0x3492	; 0x3492 <fputc>
    2e40:	b7 01       	movw	r22, r14
    2e42:	c6 01       	movw	r24, r12
    2e44:	c0 96       	adiw	r24, 0x30	; 48
    2e46:	0e 94 49 1a 	call	0x3492	; 0x3492 <fputc>
    2e4a:	54 c1       	rjmp	.+680    	; 0x30f4 <vfprintf+0x68a>
    2e4c:	83 36       	cpi	r24, 0x63	; 99
    2e4e:	31 f0       	breq	.+12     	; 0x2e5c <vfprintf+0x3f2>
    2e50:	83 37       	cpi	r24, 0x73	; 115
    2e52:	79 f0       	breq	.+30     	; 0x2e72 <vfprintf+0x408>
    2e54:	83 35       	cpi	r24, 0x53	; 83
    2e56:	09 f0       	breq	.+2      	; 0x2e5a <vfprintf+0x3f0>
    2e58:	56 c0       	rjmp	.+172    	; 0x2f06 <vfprintf+0x49c>
    2e5a:	20 c0       	rjmp	.+64     	; 0x2e9c <vfprintf+0x432>
    2e5c:	56 01       	movw	r10, r12
    2e5e:	32 e0       	ldi	r19, 0x02	; 2
    2e60:	a3 0e       	add	r10, r19
    2e62:	b1 1c       	adc	r11, r1
    2e64:	f6 01       	movw	r30, r12
    2e66:	80 81       	ld	r24, Z
    2e68:	89 83       	std	Y+1, r24	; 0x01
    2e6a:	01 e0       	ldi	r16, 0x01	; 1
    2e6c:	10 e0       	ldi	r17, 0x00	; 0
    2e6e:	63 01       	movw	r12, r6
    2e70:	12 c0       	rjmp	.+36     	; 0x2e96 <vfprintf+0x42c>
    2e72:	56 01       	movw	r10, r12
    2e74:	f2 e0       	ldi	r31, 0x02	; 2
    2e76:	af 0e       	add	r10, r31
    2e78:	b1 1c       	adc	r11, r1
    2e7a:	f6 01       	movw	r30, r12
    2e7c:	c0 80       	ld	r12, Z
    2e7e:	d1 80       	ldd	r13, Z+1	; 0x01
    2e80:	96 fe       	sbrs	r9, 6
    2e82:	03 c0       	rjmp	.+6      	; 0x2e8a <vfprintf+0x420>
    2e84:	61 2f       	mov	r22, r17
    2e86:	70 e0       	ldi	r23, 0x00	; 0
    2e88:	02 c0       	rjmp	.+4      	; 0x2e8e <vfprintf+0x424>
    2e8a:	6f ef       	ldi	r22, 0xFF	; 255
    2e8c:	7f ef       	ldi	r23, 0xFF	; 255
    2e8e:	c6 01       	movw	r24, r12
    2e90:	0e 94 3e 1a 	call	0x347c	; 0x347c <strnlen>
    2e94:	8c 01       	movw	r16, r24
    2e96:	f9 2d       	mov	r31, r9
    2e98:	ff 77       	andi	r31, 0x7F	; 127
    2e9a:	14 c0       	rjmp	.+40     	; 0x2ec4 <vfprintf+0x45a>
    2e9c:	56 01       	movw	r10, r12
    2e9e:	22 e0       	ldi	r18, 0x02	; 2
    2ea0:	a2 0e       	add	r10, r18
    2ea2:	b1 1c       	adc	r11, r1
    2ea4:	f6 01       	movw	r30, r12
    2ea6:	c0 80       	ld	r12, Z
    2ea8:	d1 80       	ldd	r13, Z+1	; 0x01
    2eaa:	96 fe       	sbrs	r9, 6
    2eac:	03 c0       	rjmp	.+6      	; 0x2eb4 <vfprintf+0x44a>
    2eae:	61 2f       	mov	r22, r17
    2eb0:	70 e0       	ldi	r23, 0x00	; 0
    2eb2:	02 c0       	rjmp	.+4      	; 0x2eb8 <vfprintf+0x44e>
    2eb4:	6f ef       	ldi	r22, 0xFF	; 255
    2eb6:	7f ef       	ldi	r23, 0xFF	; 255
    2eb8:	c6 01       	movw	r24, r12
    2eba:	0e 94 33 1a 	call	0x3466	; 0x3466 <strnlen_P>
    2ebe:	8c 01       	movw	r16, r24
    2ec0:	f9 2d       	mov	r31, r9
    2ec2:	f0 68       	ori	r31, 0x80	; 128
    2ec4:	9f 2e       	mov	r9, r31
    2ec6:	f3 fd       	sbrc	r31, 3
    2ec8:	1a c0       	rjmp	.+52     	; 0x2efe <vfprintf+0x494>
    2eca:	85 2d       	mov	r24, r5
    2ecc:	90 e0       	ldi	r25, 0x00	; 0
    2ece:	08 17       	cp	r16, r24
    2ed0:	19 07       	cpc	r17, r25
    2ed2:	a8 f4       	brcc	.+42     	; 0x2efe <vfprintf+0x494>
    2ed4:	b7 01       	movw	r22, r14
    2ed6:	80 e2       	ldi	r24, 0x20	; 32
    2ed8:	90 e0       	ldi	r25, 0x00	; 0
    2eda:	0e 94 49 1a 	call	0x3492	; 0x3492 <fputc>
    2ede:	5a 94       	dec	r5
    2ee0:	f4 cf       	rjmp	.-24     	; 0x2eca <vfprintf+0x460>
    2ee2:	f6 01       	movw	r30, r12
    2ee4:	97 fc       	sbrc	r9, 7
    2ee6:	85 91       	lpm	r24, Z+
    2ee8:	97 fe       	sbrs	r9, 7
    2eea:	81 91       	ld	r24, Z+
    2eec:	6f 01       	movw	r12, r30
    2eee:	b7 01       	movw	r22, r14
    2ef0:	90 e0       	ldi	r25, 0x00	; 0
    2ef2:	0e 94 49 1a 	call	0x3492	; 0x3492 <fputc>
    2ef6:	51 10       	cpse	r5, r1
    2ef8:	5a 94       	dec	r5
    2efa:	01 50       	subi	r16, 0x01	; 1
    2efc:	11 09       	sbc	r17, r1
    2efe:	01 15       	cp	r16, r1
    2f00:	11 05       	cpc	r17, r1
    2f02:	79 f7       	brne	.-34     	; 0x2ee2 <vfprintf+0x478>
    2f04:	f7 c0       	rjmp	.+494    	; 0x30f4 <vfprintf+0x68a>
    2f06:	84 36       	cpi	r24, 0x64	; 100
    2f08:	11 f0       	breq	.+4      	; 0x2f0e <vfprintf+0x4a4>
    2f0a:	89 36       	cpi	r24, 0x69	; 105
    2f0c:	61 f5       	brne	.+88     	; 0x2f66 <vfprintf+0x4fc>
    2f0e:	56 01       	movw	r10, r12
    2f10:	97 fe       	sbrs	r9, 7
    2f12:	09 c0       	rjmp	.+18     	; 0x2f26 <vfprintf+0x4bc>
    2f14:	24 e0       	ldi	r18, 0x04	; 4
    2f16:	a2 0e       	add	r10, r18
    2f18:	b1 1c       	adc	r11, r1
    2f1a:	f6 01       	movw	r30, r12
    2f1c:	60 81       	ld	r22, Z
    2f1e:	71 81       	ldd	r23, Z+1	; 0x01
    2f20:	82 81       	ldd	r24, Z+2	; 0x02
    2f22:	93 81       	ldd	r25, Z+3	; 0x03
    2f24:	0a c0       	rjmp	.+20     	; 0x2f3a <vfprintf+0x4d0>
    2f26:	f2 e0       	ldi	r31, 0x02	; 2
    2f28:	af 0e       	add	r10, r31
    2f2a:	b1 1c       	adc	r11, r1
    2f2c:	f6 01       	movw	r30, r12
    2f2e:	60 81       	ld	r22, Z
    2f30:	71 81       	ldd	r23, Z+1	; 0x01
    2f32:	07 2e       	mov	r0, r23
    2f34:	00 0c       	add	r0, r0
    2f36:	88 0b       	sbc	r24, r24
    2f38:	99 0b       	sbc	r25, r25
    2f3a:	f9 2d       	mov	r31, r9
    2f3c:	ff 76       	andi	r31, 0x6F	; 111
    2f3e:	9f 2e       	mov	r9, r31
    2f40:	97 ff       	sbrs	r25, 7
    2f42:	09 c0       	rjmp	.+18     	; 0x2f56 <vfprintf+0x4ec>
    2f44:	90 95       	com	r25
    2f46:	80 95       	com	r24
    2f48:	70 95       	com	r23
    2f4a:	61 95       	neg	r22
    2f4c:	7f 4f       	sbci	r23, 0xFF	; 255
    2f4e:	8f 4f       	sbci	r24, 0xFF	; 255
    2f50:	9f 4f       	sbci	r25, 0xFF	; 255
    2f52:	f0 68       	ori	r31, 0x80	; 128
    2f54:	9f 2e       	mov	r9, r31
    2f56:	2a e0       	ldi	r18, 0x0A	; 10
    2f58:	30 e0       	ldi	r19, 0x00	; 0
    2f5a:	a3 01       	movw	r20, r6
    2f5c:	0e 94 9b 1a 	call	0x3536	; 0x3536 <__ultoa_invert>
    2f60:	c8 2e       	mov	r12, r24
    2f62:	c6 18       	sub	r12, r6
    2f64:	3f c0       	rjmp	.+126    	; 0x2fe4 <vfprintf+0x57a>
    2f66:	09 2d       	mov	r16, r9
    2f68:	85 37       	cpi	r24, 0x75	; 117
    2f6a:	21 f4       	brne	.+8      	; 0x2f74 <vfprintf+0x50a>
    2f6c:	0f 7e       	andi	r16, 0xEF	; 239
    2f6e:	2a e0       	ldi	r18, 0x0A	; 10
    2f70:	30 e0       	ldi	r19, 0x00	; 0
    2f72:	1d c0       	rjmp	.+58     	; 0x2fae <vfprintf+0x544>
    2f74:	09 7f       	andi	r16, 0xF9	; 249
    2f76:	8f 36       	cpi	r24, 0x6F	; 111
    2f78:	91 f0       	breq	.+36     	; 0x2f9e <vfprintf+0x534>
    2f7a:	18 f4       	brcc	.+6      	; 0x2f82 <vfprintf+0x518>
    2f7c:	88 35       	cpi	r24, 0x58	; 88
    2f7e:	59 f0       	breq	.+22     	; 0x2f96 <vfprintf+0x52c>
    2f80:	c3 c0       	rjmp	.+390    	; 0x3108 <vfprintf+0x69e>
    2f82:	80 37       	cpi	r24, 0x70	; 112
    2f84:	19 f0       	breq	.+6      	; 0x2f8c <vfprintf+0x522>
    2f86:	88 37       	cpi	r24, 0x78	; 120
    2f88:	11 f0       	breq	.+4      	; 0x2f8e <vfprintf+0x524>
    2f8a:	be c0       	rjmp	.+380    	; 0x3108 <vfprintf+0x69e>
    2f8c:	00 61       	ori	r16, 0x10	; 16
    2f8e:	04 ff       	sbrs	r16, 4
    2f90:	09 c0       	rjmp	.+18     	; 0x2fa4 <vfprintf+0x53a>
    2f92:	04 60       	ori	r16, 0x04	; 4
    2f94:	07 c0       	rjmp	.+14     	; 0x2fa4 <vfprintf+0x53a>
    2f96:	94 fe       	sbrs	r9, 4
    2f98:	08 c0       	rjmp	.+16     	; 0x2faa <vfprintf+0x540>
    2f9a:	06 60       	ori	r16, 0x06	; 6
    2f9c:	06 c0       	rjmp	.+12     	; 0x2faa <vfprintf+0x540>
    2f9e:	28 e0       	ldi	r18, 0x08	; 8
    2fa0:	30 e0       	ldi	r19, 0x00	; 0
    2fa2:	05 c0       	rjmp	.+10     	; 0x2fae <vfprintf+0x544>
    2fa4:	20 e1       	ldi	r18, 0x10	; 16
    2fa6:	30 e0       	ldi	r19, 0x00	; 0
    2fa8:	02 c0       	rjmp	.+4      	; 0x2fae <vfprintf+0x544>
    2faa:	20 e1       	ldi	r18, 0x10	; 16
    2fac:	32 e0       	ldi	r19, 0x02	; 2
    2fae:	56 01       	movw	r10, r12
    2fb0:	07 ff       	sbrs	r16, 7
    2fb2:	09 c0       	rjmp	.+18     	; 0x2fc6 <vfprintf+0x55c>
    2fb4:	84 e0       	ldi	r24, 0x04	; 4
    2fb6:	a8 0e       	add	r10, r24
    2fb8:	b1 1c       	adc	r11, r1
    2fba:	f6 01       	movw	r30, r12
    2fbc:	60 81       	ld	r22, Z
    2fbe:	71 81       	ldd	r23, Z+1	; 0x01
    2fc0:	82 81       	ldd	r24, Z+2	; 0x02
    2fc2:	93 81       	ldd	r25, Z+3	; 0x03
    2fc4:	08 c0       	rjmp	.+16     	; 0x2fd6 <vfprintf+0x56c>
    2fc6:	f2 e0       	ldi	r31, 0x02	; 2
    2fc8:	af 0e       	add	r10, r31
    2fca:	b1 1c       	adc	r11, r1
    2fcc:	f6 01       	movw	r30, r12
    2fce:	60 81       	ld	r22, Z
    2fd0:	71 81       	ldd	r23, Z+1	; 0x01
    2fd2:	80 e0       	ldi	r24, 0x00	; 0
    2fd4:	90 e0       	ldi	r25, 0x00	; 0
    2fd6:	a3 01       	movw	r20, r6
    2fd8:	0e 94 9b 1a 	call	0x3536	; 0x3536 <__ultoa_invert>
    2fdc:	c8 2e       	mov	r12, r24
    2fde:	c6 18       	sub	r12, r6
    2fe0:	0f 77       	andi	r16, 0x7F	; 127
    2fe2:	90 2e       	mov	r9, r16
    2fe4:	96 fe       	sbrs	r9, 6
    2fe6:	0b c0       	rjmp	.+22     	; 0x2ffe <vfprintf+0x594>
    2fe8:	09 2d       	mov	r16, r9
    2fea:	0e 7f       	andi	r16, 0xFE	; 254
    2fec:	c1 16       	cp	r12, r17
    2fee:	50 f4       	brcc	.+20     	; 0x3004 <vfprintf+0x59a>
    2ff0:	94 fe       	sbrs	r9, 4
    2ff2:	0a c0       	rjmp	.+20     	; 0x3008 <vfprintf+0x59e>
    2ff4:	92 fc       	sbrc	r9, 2
    2ff6:	08 c0       	rjmp	.+16     	; 0x3008 <vfprintf+0x59e>
    2ff8:	09 2d       	mov	r16, r9
    2ffa:	0e 7e       	andi	r16, 0xEE	; 238
    2ffc:	05 c0       	rjmp	.+10     	; 0x3008 <vfprintf+0x59e>
    2ffe:	dc 2c       	mov	r13, r12
    3000:	09 2d       	mov	r16, r9
    3002:	03 c0       	rjmp	.+6      	; 0x300a <vfprintf+0x5a0>
    3004:	dc 2c       	mov	r13, r12
    3006:	01 c0       	rjmp	.+2      	; 0x300a <vfprintf+0x5a0>
    3008:	d1 2e       	mov	r13, r17
    300a:	04 ff       	sbrs	r16, 4
    300c:	0d c0       	rjmp	.+26     	; 0x3028 <vfprintf+0x5be>
    300e:	fe 01       	movw	r30, r28
    3010:	ec 0d       	add	r30, r12
    3012:	f1 1d       	adc	r31, r1
    3014:	80 81       	ld	r24, Z
    3016:	80 33       	cpi	r24, 0x30	; 48
    3018:	11 f4       	brne	.+4      	; 0x301e <vfprintf+0x5b4>
    301a:	09 7e       	andi	r16, 0xE9	; 233
    301c:	09 c0       	rjmp	.+18     	; 0x3030 <vfprintf+0x5c6>
    301e:	02 ff       	sbrs	r16, 2
    3020:	06 c0       	rjmp	.+12     	; 0x302e <vfprintf+0x5c4>
    3022:	d3 94       	inc	r13
    3024:	d3 94       	inc	r13
    3026:	04 c0       	rjmp	.+8      	; 0x3030 <vfprintf+0x5c6>
    3028:	80 2f       	mov	r24, r16
    302a:	86 78       	andi	r24, 0x86	; 134
    302c:	09 f0       	breq	.+2      	; 0x3030 <vfprintf+0x5c6>
    302e:	d3 94       	inc	r13
    3030:	03 fd       	sbrc	r16, 3
    3032:	11 c0       	rjmp	.+34     	; 0x3056 <vfprintf+0x5ec>
    3034:	00 ff       	sbrs	r16, 0
    3036:	06 c0       	rjmp	.+12     	; 0x3044 <vfprintf+0x5da>
    3038:	1c 2d       	mov	r17, r12
    303a:	d5 14       	cp	r13, r5
    303c:	80 f4       	brcc	.+32     	; 0x305e <vfprintf+0x5f4>
    303e:	15 0d       	add	r17, r5
    3040:	1d 19       	sub	r17, r13
    3042:	0d c0       	rjmp	.+26     	; 0x305e <vfprintf+0x5f4>
    3044:	d5 14       	cp	r13, r5
    3046:	58 f4       	brcc	.+22     	; 0x305e <vfprintf+0x5f4>
    3048:	b7 01       	movw	r22, r14
    304a:	80 e2       	ldi	r24, 0x20	; 32
    304c:	90 e0       	ldi	r25, 0x00	; 0
    304e:	0e 94 49 1a 	call	0x3492	; 0x3492 <fputc>
    3052:	d3 94       	inc	r13
    3054:	f7 cf       	rjmp	.-18     	; 0x3044 <vfprintf+0x5da>
    3056:	d5 14       	cp	r13, r5
    3058:	10 f4       	brcc	.+4      	; 0x305e <vfprintf+0x5f4>
    305a:	5d 18       	sub	r5, r13
    305c:	01 c0       	rjmp	.+2      	; 0x3060 <vfprintf+0x5f6>
    305e:	51 2c       	mov	r5, r1
    3060:	04 ff       	sbrs	r16, 4
    3062:	10 c0       	rjmp	.+32     	; 0x3084 <vfprintf+0x61a>
    3064:	b7 01       	movw	r22, r14
    3066:	80 e3       	ldi	r24, 0x30	; 48
    3068:	90 e0       	ldi	r25, 0x00	; 0
    306a:	0e 94 49 1a 	call	0x3492	; 0x3492 <fputc>
    306e:	02 ff       	sbrs	r16, 2
    3070:	17 c0       	rjmp	.+46     	; 0x30a0 <vfprintf+0x636>
    3072:	01 fd       	sbrc	r16, 1
    3074:	03 c0       	rjmp	.+6      	; 0x307c <vfprintf+0x612>
    3076:	88 e7       	ldi	r24, 0x78	; 120
    3078:	90 e0       	ldi	r25, 0x00	; 0
    307a:	02 c0       	rjmp	.+4      	; 0x3080 <vfprintf+0x616>
    307c:	88 e5       	ldi	r24, 0x58	; 88
    307e:	90 e0       	ldi	r25, 0x00	; 0
    3080:	b7 01       	movw	r22, r14
    3082:	0c c0       	rjmp	.+24     	; 0x309c <vfprintf+0x632>
    3084:	80 2f       	mov	r24, r16
    3086:	86 78       	andi	r24, 0x86	; 134
    3088:	59 f0       	breq	.+22     	; 0x30a0 <vfprintf+0x636>
    308a:	01 ff       	sbrs	r16, 1
    308c:	02 c0       	rjmp	.+4      	; 0x3092 <vfprintf+0x628>
    308e:	8b e2       	ldi	r24, 0x2B	; 43
    3090:	01 c0       	rjmp	.+2      	; 0x3094 <vfprintf+0x62a>
    3092:	80 e2       	ldi	r24, 0x20	; 32
    3094:	07 fd       	sbrc	r16, 7
    3096:	8d e2       	ldi	r24, 0x2D	; 45
    3098:	b7 01       	movw	r22, r14
    309a:	90 e0       	ldi	r25, 0x00	; 0
    309c:	0e 94 49 1a 	call	0x3492	; 0x3492 <fputc>
    30a0:	c1 16       	cp	r12, r17
    30a2:	38 f4       	brcc	.+14     	; 0x30b2 <vfprintf+0x648>
    30a4:	b7 01       	movw	r22, r14
    30a6:	80 e3       	ldi	r24, 0x30	; 48
    30a8:	90 e0       	ldi	r25, 0x00	; 0
    30aa:	0e 94 49 1a 	call	0x3492	; 0x3492 <fputc>
    30ae:	11 50       	subi	r17, 0x01	; 1
    30b0:	f7 cf       	rjmp	.-18     	; 0x30a0 <vfprintf+0x636>
    30b2:	ca 94       	dec	r12
    30b4:	f3 01       	movw	r30, r6
    30b6:	ec 0d       	add	r30, r12
    30b8:	f1 1d       	adc	r31, r1
    30ba:	80 81       	ld	r24, Z
    30bc:	b7 01       	movw	r22, r14
    30be:	90 e0       	ldi	r25, 0x00	; 0
    30c0:	0e 94 49 1a 	call	0x3492	; 0x3492 <fputc>
    30c4:	c1 10       	cpse	r12, r1
    30c6:	f5 cf       	rjmp	.-22     	; 0x30b2 <vfprintf+0x648>
    30c8:	15 c0       	rjmp	.+42     	; 0x30f4 <vfprintf+0x68a>
    30ca:	f4 e0       	ldi	r31, 0x04	; 4
    30cc:	f5 15       	cp	r31, r5
    30ce:	60 f5       	brcc	.+88     	; 0x3128 <vfprintf+0x6be>
    30d0:	84 e0       	ldi	r24, 0x04	; 4
    30d2:	58 1a       	sub	r5, r24
    30d4:	93 fe       	sbrs	r9, 3
    30d6:	1f c0       	rjmp	.+62     	; 0x3116 <vfprintf+0x6ac>
    30d8:	01 11       	cpse	r16, r1
    30da:	27 c0       	rjmp	.+78     	; 0x312a <vfprintf+0x6c0>
    30dc:	2c 85       	ldd	r18, Y+12	; 0x0c
    30de:	23 ff       	sbrs	r18, 3
    30e0:	2a c0       	rjmp	.+84     	; 0x3136 <vfprintf+0x6cc>
    30e2:	02 e2       	ldi	r16, 0x22	; 34
    30e4:	11 e0       	ldi	r17, 0x01	; 1
    30e6:	39 2d       	mov	r19, r9
    30e8:	30 71       	andi	r19, 0x10	; 16
    30ea:	93 2e       	mov	r9, r19
    30ec:	f8 01       	movw	r30, r16
    30ee:	84 91       	lpm	r24, Z
    30f0:	81 11       	cpse	r24, r1
    30f2:	24 c0       	rjmp	.+72     	; 0x313c <vfprintf+0x6d2>
    30f4:	55 20       	and	r5, r5
    30f6:	09 f4       	brne	.+2      	; 0x30fa <vfprintf+0x690>
    30f8:	e4 cc       	rjmp	.-1592   	; 0x2ac2 <vfprintf+0x58>
    30fa:	b7 01       	movw	r22, r14
    30fc:	80 e2       	ldi	r24, 0x20	; 32
    30fe:	90 e0       	ldi	r25, 0x00	; 0
    3100:	0e 94 49 1a 	call	0x3492	; 0x3492 <fputc>
    3104:	5a 94       	dec	r5
    3106:	f6 cf       	rjmp	.-20     	; 0x30f4 <vfprintf+0x68a>
    3108:	f7 01       	movw	r30, r14
    310a:	86 81       	ldd	r24, Z+6	; 0x06
    310c:	97 81       	ldd	r25, Z+7	; 0x07
    310e:	26 c0       	rjmp	.+76     	; 0x315c <vfprintf+0x6f2>
    3110:	8f ef       	ldi	r24, 0xFF	; 255
    3112:	9f ef       	ldi	r25, 0xFF	; 255
    3114:	23 c0       	rjmp	.+70     	; 0x315c <vfprintf+0x6f2>
    3116:	b7 01       	movw	r22, r14
    3118:	80 e2       	ldi	r24, 0x20	; 32
    311a:	90 e0       	ldi	r25, 0x00	; 0
    311c:	0e 94 49 1a 	call	0x3492	; 0x3492 <fputc>
    3120:	5a 94       	dec	r5
    3122:	51 10       	cpse	r5, r1
    3124:	f8 cf       	rjmp	.-16     	; 0x3116 <vfprintf+0x6ac>
    3126:	d8 cf       	rjmp	.-80     	; 0x30d8 <vfprintf+0x66e>
    3128:	51 2c       	mov	r5, r1
    312a:	b7 01       	movw	r22, r14
    312c:	80 2f       	mov	r24, r16
    312e:	90 e0       	ldi	r25, 0x00	; 0
    3130:	0e 94 49 1a 	call	0x3492	; 0x3492 <fputc>
    3134:	d3 cf       	rjmp	.-90     	; 0x30dc <vfprintf+0x672>
    3136:	06 e2       	ldi	r16, 0x26	; 38
    3138:	11 e0       	ldi	r17, 0x01	; 1
    313a:	d5 cf       	rjmp	.-86     	; 0x30e6 <vfprintf+0x67c>
    313c:	91 10       	cpse	r9, r1
    313e:	80 52       	subi	r24, 0x20	; 32
    3140:	b7 01       	movw	r22, r14
    3142:	90 e0       	ldi	r25, 0x00	; 0
    3144:	0e 94 49 1a 	call	0x3492	; 0x3492 <fputc>
    3148:	0f 5f       	subi	r16, 0xFF	; 255
    314a:	1f 4f       	sbci	r17, 0xFF	; 255
    314c:	cf cf       	rjmp	.-98     	; 0x30ec <vfprintf+0x682>
    314e:	23 e0       	ldi	r18, 0x03	; 3
    3150:	25 15       	cp	r18, r5
    3152:	10 f4       	brcc	.+4      	; 0x3158 <vfprintf+0x6ee>
    3154:	83 e0       	ldi	r24, 0x03	; 3
    3156:	bd cf       	rjmp	.-134    	; 0x30d2 <vfprintf+0x668>
    3158:	51 2c       	mov	r5, r1
    315a:	c0 cf       	rjmp	.-128    	; 0x30dc <vfprintf+0x672>
    315c:	60 96       	adiw	r28, 0x10	; 16
    315e:	e2 e1       	ldi	r30, 0x12	; 18
    3160:	0c 94 2f 19 	jmp	0x325e	; 0x325e <__epilogue_restores__>

00003164 <__divmodhi4>:
    3164:	97 fb       	bst	r25, 7
    3166:	07 2e       	mov	r0, r23
    3168:	16 f4       	brtc	.+4      	; 0x316e <__divmodhi4+0xa>
    316a:	00 94       	com	r0
    316c:	07 d0       	rcall	.+14     	; 0x317c <__divmodhi4_neg1>
    316e:	77 fd       	sbrc	r23, 7
    3170:	09 d0       	rcall	.+18     	; 0x3184 <__divmodhi4_neg2>
    3172:	0e 94 47 19 	call	0x328e	; 0x328e <__udivmodhi4>
    3176:	07 fc       	sbrc	r0, 7
    3178:	05 d0       	rcall	.+10     	; 0x3184 <__divmodhi4_neg2>
    317a:	3e f4       	brtc	.+14     	; 0x318a <__divmodhi4_exit>

0000317c <__divmodhi4_neg1>:
    317c:	90 95       	com	r25
    317e:	81 95       	neg	r24
    3180:	9f 4f       	sbci	r25, 0xFF	; 255
    3182:	08 95       	ret

00003184 <__divmodhi4_neg2>:
    3184:	70 95       	com	r23
    3186:	61 95       	neg	r22
    3188:	7f 4f       	sbci	r23, 0xFF	; 255

0000318a <__divmodhi4_exit>:
    318a:	08 95       	ret

0000318c <__udivmodsi4>:
    318c:	a1 e2       	ldi	r26, 0x21	; 33
    318e:	1a 2e       	mov	r1, r26
    3190:	aa 1b       	sub	r26, r26
    3192:	bb 1b       	sub	r27, r27
    3194:	fd 01       	movw	r30, r26
    3196:	0d c0       	rjmp	.+26     	; 0x31b2 <__udivmodsi4_ep>

00003198 <__udivmodsi4_loop>:
    3198:	aa 1f       	adc	r26, r26
    319a:	bb 1f       	adc	r27, r27
    319c:	ee 1f       	adc	r30, r30
    319e:	ff 1f       	adc	r31, r31
    31a0:	a2 17       	cp	r26, r18
    31a2:	b3 07       	cpc	r27, r19
    31a4:	e4 07       	cpc	r30, r20
    31a6:	f5 07       	cpc	r31, r21
    31a8:	20 f0       	brcs	.+8      	; 0x31b2 <__udivmodsi4_ep>
    31aa:	a2 1b       	sub	r26, r18
    31ac:	b3 0b       	sbc	r27, r19
    31ae:	e4 0b       	sbc	r30, r20
    31b0:	f5 0b       	sbc	r31, r21

000031b2 <__udivmodsi4_ep>:
    31b2:	66 1f       	adc	r22, r22
    31b4:	77 1f       	adc	r23, r23
    31b6:	88 1f       	adc	r24, r24
    31b8:	99 1f       	adc	r25, r25
    31ba:	1a 94       	dec	r1
    31bc:	69 f7       	brne	.-38     	; 0x3198 <__udivmodsi4_loop>
    31be:	60 95       	com	r22
    31c0:	70 95       	com	r23
    31c2:	80 95       	com	r24
    31c4:	90 95       	com	r25
    31c6:	9b 01       	movw	r18, r22
    31c8:	ac 01       	movw	r20, r24
    31ca:	bd 01       	movw	r22, r26
    31cc:	cf 01       	movw	r24, r30
    31ce:	08 95       	ret

000031d0 <__divmodsi4>:
    31d0:	05 2e       	mov	r0, r21
    31d2:	97 fb       	bst	r25, 7
    31d4:	1e f4       	brtc	.+6      	; 0x31dc <__divmodsi4+0xc>
    31d6:	00 94       	com	r0
    31d8:	0e 94 ff 18 	call	0x31fe	; 0x31fe <__negsi2>
    31dc:	57 fd       	sbrc	r21, 7
    31de:	07 d0       	rcall	.+14     	; 0x31ee <__divmodsi4_neg2>
    31e0:	0e 94 c6 18 	call	0x318c	; 0x318c <__udivmodsi4>
    31e4:	07 fc       	sbrc	r0, 7
    31e6:	03 d0       	rcall	.+6      	; 0x31ee <__divmodsi4_neg2>
    31e8:	4e f4       	brtc	.+18     	; 0x31fc <__divmodsi4_exit>
    31ea:	0c 94 ff 18 	jmp	0x31fe	; 0x31fe <__negsi2>

000031ee <__divmodsi4_neg2>:
    31ee:	50 95       	com	r21
    31f0:	40 95       	com	r20
    31f2:	30 95       	com	r19
    31f4:	21 95       	neg	r18
    31f6:	3f 4f       	sbci	r19, 0xFF	; 255
    31f8:	4f 4f       	sbci	r20, 0xFF	; 255
    31fa:	5f 4f       	sbci	r21, 0xFF	; 255

000031fc <__divmodsi4_exit>:
    31fc:	08 95       	ret

000031fe <__negsi2>:
    31fe:	90 95       	com	r25
    3200:	80 95       	com	r24
    3202:	70 95       	com	r23
    3204:	61 95       	neg	r22
    3206:	7f 4f       	sbci	r23, 0xFF	; 255
    3208:	8f 4f       	sbci	r24, 0xFF	; 255
    320a:	9f 4f       	sbci	r25, 0xFF	; 255
    320c:	08 95       	ret

0000320e <__umulhisi3>:
    320e:	a2 9f       	mul	r26, r18
    3210:	b0 01       	movw	r22, r0
    3212:	b3 9f       	mul	r27, r19
    3214:	c0 01       	movw	r24, r0
    3216:	a3 9f       	mul	r26, r19
    3218:	70 0d       	add	r23, r0
    321a:	81 1d       	adc	r24, r1
    321c:	11 24       	eor	r1, r1
    321e:	91 1d       	adc	r25, r1
    3220:	b2 9f       	mul	r27, r18
    3222:	70 0d       	add	r23, r0
    3224:	81 1d       	adc	r24, r1
    3226:	11 24       	eor	r1, r1
    3228:	91 1d       	adc	r25, r1
    322a:	08 95       	ret

0000322c <__prologue_saves__>:
    322c:	2f 92       	push	r2
    322e:	3f 92       	push	r3
    3230:	4f 92       	push	r4
    3232:	5f 92       	push	r5
    3234:	6f 92       	push	r6
    3236:	7f 92       	push	r7
    3238:	8f 92       	push	r8
    323a:	9f 92       	push	r9
    323c:	af 92       	push	r10
    323e:	bf 92       	push	r11
    3240:	cf 92       	push	r12
    3242:	df 92       	push	r13
    3244:	ef 92       	push	r14
    3246:	ff 92       	push	r15
    3248:	0f 93       	push	r16
    324a:	1f 93       	push	r17
    324c:	cf 93       	push	r28
    324e:	df 93       	push	r29
    3250:	cd b7       	in	r28, 0x3d	; 61
    3252:	de b7       	in	r29, 0x3e	; 62
    3254:	ca 1b       	sub	r28, r26
    3256:	db 0b       	sbc	r29, r27
    3258:	cd bf       	out	0x3d, r28	; 61
    325a:	de bf       	out	0x3e, r29	; 62
    325c:	09 94       	ijmp

0000325e <__epilogue_restores__>:
    325e:	2a 88       	ldd	r2, Y+18	; 0x12
    3260:	39 88       	ldd	r3, Y+17	; 0x11
    3262:	48 88       	ldd	r4, Y+16	; 0x10
    3264:	5f 84       	ldd	r5, Y+15	; 0x0f
    3266:	6e 84       	ldd	r6, Y+14	; 0x0e
    3268:	7d 84       	ldd	r7, Y+13	; 0x0d
    326a:	8c 84       	ldd	r8, Y+12	; 0x0c
    326c:	9b 84       	ldd	r9, Y+11	; 0x0b
    326e:	aa 84       	ldd	r10, Y+10	; 0x0a
    3270:	b9 84       	ldd	r11, Y+9	; 0x09
    3272:	c8 84       	ldd	r12, Y+8	; 0x08
    3274:	df 80       	ldd	r13, Y+7	; 0x07
    3276:	ee 80       	ldd	r14, Y+6	; 0x06
    3278:	fd 80       	ldd	r15, Y+5	; 0x05
    327a:	0c 81       	ldd	r16, Y+4	; 0x04
    327c:	1b 81       	ldd	r17, Y+3	; 0x03
    327e:	aa 81       	ldd	r26, Y+2	; 0x02
    3280:	b9 81       	ldd	r27, Y+1	; 0x01
    3282:	ce 0f       	add	r28, r30
    3284:	d1 1d       	adc	r29, r1
    3286:	cd bf       	out	0x3d, r28	; 61
    3288:	de bf       	out	0x3e, r29	; 62
    328a:	ed 01       	movw	r28, r26
    328c:	08 95       	ret

0000328e <__udivmodhi4>:
    328e:	aa 1b       	sub	r26, r26
    3290:	bb 1b       	sub	r27, r27
    3292:	51 e1       	ldi	r21, 0x11	; 17
    3294:	07 c0       	rjmp	.+14     	; 0x32a4 <__udivmodhi4_ep>

00003296 <__udivmodhi4_loop>:
    3296:	aa 1f       	adc	r26, r26
    3298:	bb 1f       	adc	r27, r27
    329a:	a6 17       	cp	r26, r22
    329c:	b7 07       	cpc	r27, r23
    329e:	10 f0       	brcs	.+4      	; 0x32a4 <__udivmodhi4_ep>
    32a0:	a6 1b       	sub	r26, r22
    32a2:	b7 0b       	sbc	r27, r23

000032a4 <__udivmodhi4_ep>:
    32a4:	88 1f       	adc	r24, r24
    32a6:	99 1f       	adc	r25, r25
    32a8:	5a 95       	dec	r21
    32aa:	a9 f7       	brne	.-22     	; 0x3296 <__udivmodhi4_loop>
    32ac:	80 95       	com	r24
    32ae:	90 95       	com	r25
    32b0:	bc 01       	movw	r22, r24
    32b2:	cd 01       	movw	r24, r26
    32b4:	08 95       	ret

000032b6 <__ftoa_engine>:
    32b6:	28 30       	cpi	r18, 0x08	; 8
    32b8:	08 f0       	brcs	.+2      	; 0x32bc <__ftoa_engine+0x6>
    32ba:	27 e0       	ldi	r18, 0x07	; 7
    32bc:	33 27       	eor	r19, r19
    32be:	da 01       	movw	r26, r20
    32c0:	99 0f       	add	r25, r25
    32c2:	31 1d       	adc	r19, r1
    32c4:	87 fd       	sbrc	r24, 7
    32c6:	91 60       	ori	r25, 0x01	; 1
    32c8:	00 96       	adiw	r24, 0x00	; 0
    32ca:	61 05       	cpc	r22, r1
    32cc:	71 05       	cpc	r23, r1
    32ce:	39 f4       	brne	.+14     	; 0x32de <__ftoa_engine+0x28>
    32d0:	32 60       	ori	r19, 0x02	; 2
    32d2:	2e 5f       	subi	r18, 0xFE	; 254
    32d4:	3d 93       	st	X+, r19
    32d6:	30 e3       	ldi	r19, 0x30	; 48
    32d8:	2a 95       	dec	r18
    32da:	e1 f7       	brne	.-8      	; 0x32d4 <__ftoa_engine+0x1e>
    32dc:	08 95       	ret
    32de:	9f 3f       	cpi	r25, 0xFF	; 255
    32e0:	30 f0       	brcs	.+12     	; 0x32ee <__ftoa_engine+0x38>
    32e2:	80 38       	cpi	r24, 0x80	; 128
    32e4:	71 05       	cpc	r23, r1
    32e6:	61 05       	cpc	r22, r1
    32e8:	09 f0       	breq	.+2      	; 0x32ec <__ftoa_engine+0x36>
    32ea:	3c 5f       	subi	r19, 0xFC	; 252
    32ec:	3c 5f       	subi	r19, 0xFC	; 252
    32ee:	3d 93       	st	X+, r19
    32f0:	91 30       	cpi	r25, 0x01	; 1
    32f2:	08 f0       	brcs	.+2      	; 0x32f6 <__ftoa_engine+0x40>
    32f4:	80 68       	ori	r24, 0x80	; 128
    32f6:	91 1d       	adc	r25, r1
    32f8:	df 93       	push	r29
    32fa:	cf 93       	push	r28
    32fc:	1f 93       	push	r17
    32fe:	0f 93       	push	r16
    3300:	ff 92       	push	r15
    3302:	ef 92       	push	r14
    3304:	19 2f       	mov	r17, r25
    3306:	98 7f       	andi	r25, 0xF8	; 248
    3308:	96 95       	lsr	r25
    330a:	e9 2f       	mov	r30, r25
    330c:	96 95       	lsr	r25
    330e:	96 95       	lsr	r25
    3310:	e9 0f       	add	r30, r25
    3312:	ff 27       	eor	r31, r31
    3314:	ec 57       	subi	r30, 0x7C	; 124
    3316:	fe 4f       	sbci	r31, 0xFE	; 254
    3318:	99 27       	eor	r25, r25
    331a:	33 27       	eor	r19, r19
    331c:	ee 24       	eor	r14, r14
    331e:	ff 24       	eor	r15, r15
    3320:	a7 01       	movw	r20, r14
    3322:	e7 01       	movw	r28, r14
    3324:	05 90       	lpm	r0, Z+
    3326:	08 94       	sec
    3328:	07 94       	ror	r0
    332a:	28 f4       	brcc	.+10     	; 0x3336 <__ftoa_engine+0x80>
    332c:	36 0f       	add	r19, r22
    332e:	e7 1e       	adc	r14, r23
    3330:	f8 1e       	adc	r15, r24
    3332:	49 1f       	adc	r20, r25
    3334:	51 1d       	adc	r21, r1
    3336:	66 0f       	add	r22, r22
    3338:	77 1f       	adc	r23, r23
    333a:	88 1f       	adc	r24, r24
    333c:	99 1f       	adc	r25, r25
    333e:	06 94       	lsr	r0
    3340:	a1 f7       	brne	.-24     	; 0x332a <__ftoa_engine+0x74>
    3342:	05 90       	lpm	r0, Z+
    3344:	07 94       	ror	r0
    3346:	28 f4       	brcc	.+10     	; 0x3352 <__ftoa_engine+0x9c>
    3348:	e7 0e       	add	r14, r23
    334a:	f8 1e       	adc	r15, r24
    334c:	49 1f       	adc	r20, r25
    334e:	56 1f       	adc	r21, r22
    3350:	c1 1d       	adc	r28, r1
    3352:	77 0f       	add	r23, r23
    3354:	88 1f       	adc	r24, r24
    3356:	99 1f       	adc	r25, r25
    3358:	66 1f       	adc	r22, r22
    335a:	06 94       	lsr	r0
    335c:	a1 f7       	brne	.-24     	; 0x3346 <__ftoa_engine+0x90>
    335e:	05 90       	lpm	r0, Z+
    3360:	07 94       	ror	r0
    3362:	28 f4       	brcc	.+10     	; 0x336e <__ftoa_engine+0xb8>
    3364:	f8 0e       	add	r15, r24
    3366:	49 1f       	adc	r20, r25
    3368:	56 1f       	adc	r21, r22
    336a:	c7 1f       	adc	r28, r23
    336c:	d1 1d       	adc	r29, r1
    336e:	88 0f       	add	r24, r24
    3370:	99 1f       	adc	r25, r25
    3372:	66 1f       	adc	r22, r22
    3374:	77 1f       	adc	r23, r23
    3376:	06 94       	lsr	r0
    3378:	a1 f7       	brne	.-24     	; 0x3362 <__ftoa_engine+0xac>
    337a:	05 90       	lpm	r0, Z+
    337c:	07 94       	ror	r0
    337e:	20 f4       	brcc	.+8      	; 0x3388 <__ftoa_engine+0xd2>
    3380:	49 0f       	add	r20, r25
    3382:	56 1f       	adc	r21, r22
    3384:	c7 1f       	adc	r28, r23
    3386:	d8 1f       	adc	r29, r24
    3388:	99 0f       	add	r25, r25
    338a:	66 1f       	adc	r22, r22
    338c:	77 1f       	adc	r23, r23
    338e:	88 1f       	adc	r24, r24
    3390:	06 94       	lsr	r0
    3392:	a9 f7       	brne	.-22     	; 0x337e <__ftoa_engine+0xc8>
    3394:	84 91       	lpm	r24, Z
    3396:	10 95       	com	r17
    3398:	17 70       	andi	r17, 0x07	; 7
    339a:	41 f0       	breq	.+16     	; 0x33ac <__ftoa_engine+0xf6>
    339c:	d6 95       	lsr	r29
    339e:	c7 95       	ror	r28
    33a0:	57 95       	ror	r21
    33a2:	47 95       	ror	r20
    33a4:	f7 94       	ror	r15
    33a6:	e7 94       	ror	r14
    33a8:	1a 95       	dec	r17
    33aa:	c1 f7       	brne	.-16     	; 0x339c <__ftoa_engine+0xe6>
    33ac:	ea e2       	ldi	r30, 0x2A	; 42
    33ae:	f1 e0       	ldi	r31, 0x01	; 1
    33b0:	68 94       	set
    33b2:	15 90       	lpm	r1, Z+
    33b4:	15 91       	lpm	r17, Z+
    33b6:	35 91       	lpm	r19, Z+
    33b8:	65 91       	lpm	r22, Z+
    33ba:	95 91       	lpm	r25, Z+
    33bc:	05 90       	lpm	r0, Z+
    33be:	7f e2       	ldi	r23, 0x2F	; 47
    33c0:	73 95       	inc	r23
    33c2:	e1 18       	sub	r14, r1
    33c4:	f1 0a       	sbc	r15, r17
    33c6:	43 0b       	sbc	r20, r19
    33c8:	56 0b       	sbc	r21, r22
    33ca:	c9 0b       	sbc	r28, r25
    33cc:	d0 09       	sbc	r29, r0
    33ce:	c0 f7       	brcc	.-16     	; 0x33c0 <__ftoa_engine+0x10a>
    33d0:	e1 0c       	add	r14, r1
    33d2:	f1 1e       	adc	r15, r17
    33d4:	43 1f       	adc	r20, r19
    33d6:	56 1f       	adc	r21, r22
    33d8:	c9 1f       	adc	r28, r25
    33da:	d0 1d       	adc	r29, r0
    33dc:	7e f4       	brtc	.+30     	; 0x33fc <__ftoa_engine+0x146>
    33de:	70 33       	cpi	r23, 0x30	; 48
    33e0:	11 f4       	brne	.+4      	; 0x33e6 <__ftoa_engine+0x130>
    33e2:	8a 95       	dec	r24
    33e4:	e6 cf       	rjmp	.-52     	; 0x33b2 <__ftoa_engine+0xfc>
    33e6:	e8 94       	clt
    33e8:	01 50       	subi	r16, 0x01	; 1
    33ea:	30 f0       	brcs	.+12     	; 0x33f8 <__ftoa_engine+0x142>
    33ec:	08 0f       	add	r16, r24
    33ee:	0a f4       	brpl	.+2      	; 0x33f2 <__ftoa_engine+0x13c>
    33f0:	00 27       	eor	r16, r16
    33f2:	02 17       	cp	r16, r18
    33f4:	08 f4       	brcc	.+2      	; 0x33f8 <__ftoa_engine+0x142>
    33f6:	20 2f       	mov	r18, r16
    33f8:	23 95       	inc	r18
    33fa:	02 2f       	mov	r16, r18
    33fc:	7a 33       	cpi	r23, 0x3A	; 58
    33fe:	28 f0       	brcs	.+10     	; 0x340a <__ftoa_engine+0x154>
    3400:	79 e3       	ldi	r23, 0x39	; 57
    3402:	7d 93       	st	X+, r23
    3404:	2a 95       	dec	r18
    3406:	e9 f7       	brne	.-6      	; 0x3402 <__ftoa_engine+0x14c>
    3408:	10 c0       	rjmp	.+32     	; 0x342a <__ftoa_engine+0x174>
    340a:	7d 93       	st	X+, r23
    340c:	2a 95       	dec	r18
    340e:	89 f6       	brne	.-94     	; 0x33b2 <__ftoa_engine+0xfc>
    3410:	06 94       	lsr	r0
    3412:	97 95       	ror	r25
    3414:	67 95       	ror	r22
    3416:	37 95       	ror	r19
    3418:	17 95       	ror	r17
    341a:	17 94       	ror	r1
    341c:	e1 18       	sub	r14, r1
    341e:	f1 0a       	sbc	r15, r17
    3420:	43 0b       	sbc	r20, r19
    3422:	56 0b       	sbc	r21, r22
    3424:	c9 0b       	sbc	r28, r25
    3426:	d0 09       	sbc	r29, r0
    3428:	98 f0       	brcs	.+38     	; 0x3450 <__ftoa_engine+0x19a>
    342a:	23 95       	inc	r18
    342c:	7e 91       	ld	r23, -X
    342e:	73 95       	inc	r23
    3430:	7a 33       	cpi	r23, 0x3A	; 58
    3432:	08 f0       	brcs	.+2      	; 0x3436 <__ftoa_engine+0x180>
    3434:	70 e3       	ldi	r23, 0x30	; 48
    3436:	7c 93       	st	X, r23
    3438:	20 13       	cpse	r18, r16
    343a:	b8 f7       	brcc	.-18     	; 0x342a <__ftoa_engine+0x174>
    343c:	7e 91       	ld	r23, -X
    343e:	70 61       	ori	r23, 0x10	; 16
    3440:	7d 93       	st	X+, r23
    3442:	30 f0       	brcs	.+12     	; 0x3450 <__ftoa_engine+0x19a>
    3444:	83 95       	inc	r24
    3446:	71 e3       	ldi	r23, 0x31	; 49
    3448:	7d 93       	st	X+, r23
    344a:	70 e3       	ldi	r23, 0x30	; 48
    344c:	2a 95       	dec	r18
    344e:	e1 f7       	brne	.-8      	; 0x3448 <__ftoa_engine+0x192>
    3450:	11 24       	eor	r1, r1
    3452:	ef 90       	pop	r14
    3454:	ff 90       	pop	r15
    3456:	0f 91       	pop	r16
    3458:	1f 91       	pop	r17
    345a:	cf 91       	pop	r28
    345c:	df 91       	pop	r29
    345e:	99 27       	eor	r25, r25
    3460:	87 fd       	sbrc	r24, 7
    3462:	90 95       	com	r25
    3464:	08 95       	ret

00003466 <strnlen_P>:
    3466:	fc 01       	movw	r30, r24
    3468:	05 90       	lpm	r0, Z+
    346a:	61 50       	subi	r22, 0x01	; 1
    346c:	70 40       	sbci	r23, 0x00	; 0
    346e:	01 10       	cpse	r0, r1
    3470:	d8 f7       	brcc	.-10     	; 0x3468 <strnlen_P+0x2>
    3472:	80 95       	com	r24
    3474:	90 95       	com	r25
    3476:	8e 0f       	add	r24, r30
    3478:	9f 1f       	adc	r25, r31
    347a:	08 95       	ret

0000347c <strnlen>:
    347c:	fc 01       	movw	r30, r24
    347e:	61 50       	subi	r22, 0x01	; 1
    3480:	70 40       	sbci	r23, 0x00	; 0
    3482:	01 90       	ld	r0, Z+
    3484:	01 10       	cpse	r0, r1
    3486:	d8 f7       	brcc	.-10     	; 0x347e <strnlen+0x2>
    3488:	80 95       	com	r24
    348a:	90 95       	com	r25
    348c:	8e 0f       	add	r24, r30
    348e:	9f 1f       	adc	r25, r31
    3490:	08 95       	ret

00003492 <fputc>:
    3492:	0f 93       	push	r16
    3494:	1f 93       	push	r17
    3496:	cf 93       	push	r28
    3498:	df 93       	push	r29
    349a:	fb 01       	movw	r30, r22
    349c:	23 81       	ldd	r18, Z+3	; 0x03
    349e:	21 fd       	sbrc	r18, 1
    34a0:	03 c0       	rjmp	.+6      	; 0x34a8 <fputc+0x16>
    34a2:	8f ef       	ldi	r24, 0xFF	; 255
    34a4:	9f ef       	ldi	r25, 0xFF	; 255
    34a6:	2c c0       	rjmp	.+88     	; 0x3500 <fputc+0x6e>
    34a8:	22 ff       	sbrs	r18, 2
    34aa:	16 c0       	rjmp	.+44     	; 0x34d8 <fputc+0x46>
    34ac:	46 81       	ldd	r20, Z+6	; 0x06
    34ae:	57 81       	ldd	r21, Z+7	; 0x07
    34b0:	24 81       	ldd	r18, Z+4	; 0x04
    34b2:	35 81       	ldd	r19, Z+5	; 0x05
    34b4:	42 17       	cp	r20, r18
    34b6:	53 07       	cpc	r21, r19
    34b8:	44 f4       	brge	.+16     	; 0x34ca <fputc+0x38>
    34ba:	a0 81       	ld	r26, Z
    34bc:	b1 81       	ldd	r27, Z+1	; 0x01
    34be:	9d 01       	movw	r18, r26
    34c0:	2f 5f       	subi	r18, 0xFF	; 255
    34c2:	3f 4f       	sbci	r19, 0xFF	; 255
    34c4:	20 83       	st	Z, r18
    34c6:	31 83       	std	Z+1, r19	; 0x01
    34c8:	8c 93       	st	X, r24
    34ca:	26 81       	ldd	r18, Z+6	; 0x06
    34cc:	37 81       	ldd	r19, Z+7	; 0x07
    34ce:	2f 5f       	subi	r18, 0xFF	; 255
    34d0:	3f 4f       	sbci	r19, 0xFF	; 255
    34d2:	26 83       	std	Z+6, r18	; 0x06
    34d4:	37 83       	std	Z+7, r19	; 0x07
    34d6:	14 c0       	rjmp	.+40     	; 0x3500 <fputc+0x6e>
    34d8:	8b 01       	movw	r16, r22
    34da:	ec 01       	movw	r28, r24
    34dc:	fb 01       	movw	r30, r22
    34de:	00 84       	ldd	r0, Z+8	; 0x08
    34e0:	f1 85       	ldd	r31, Z+9	; 0x09
    34e2:	e0 2d       	mov	r30, r0
    34e4:	09 95       	icall
    34e6:	89 2b       	or	r24, r25
    34e8:	e1 f6       	brne	.-72     	; 0x34a2 <fputc+0x10>
    34ea:	d8 01       	movw	r26, r16
    34ec:	16 96       	adiw	r26, 0x06	; 6
    34ee:	8d 91       	ld	r24, X+
    34f0:	9c 91       	ld	r25, X
    34f2:	17 97       	sbiw	r26, 0x07	; 7
    34f4:	01 96       	adiw	r24, 0x01	; 1
    34f6:	16 96       	adiw	r26, 0x06	; 6
    34f8:	8d 93       	st	X+, r24
    34fa:	9c 93       	st	X, r25
    34fc:	17 97       	sbiw	r26, 0x07	; 7
    34fe:	ce 01       	movw	r24, r28
    3500:	df 91       	pop	r29
    3502:	cf 91       	pop	r28
    3504:	1f 91       	pop	r17
    3506:	0f 91       	pop	r16
    3508:	08 95       	ret

0000350a <printf>:
    350a:	a0 e0       	ldi	r26, 0x00	; 0
    350c:	b0 e0       	ldi	r27, 0x00	; 0
    350e:	eb e8       	ldi	r30, 0x8B	; 139
    3510:	fa e1       	ldi	r31, 0x1A	; 26
    3512:	0c 94 26 19 	jmp	0x324c	; 0x324c <__prologue_saves__+0x20>
    3516:	ae 01       	movw	r20, r28
    3518:	4b 5f       	subi	r20, 0xFB	; 251
    351a:	5f 4f       	sbci	r21, 0xFF	; 255
    351c:	fa 01       	movw	r30, r20
    351e:	61 91       	ld	r22, Z+
    3520:	71 91       	ld	r23, Z+
    3522:	af 01       	movw	r20, r30
    3524:	80 91 bc 39 	lds	r24, 0x39BC	; 0x8039bc <__iob+0x2>
    3528:	90 91 bd 39 	lds	r25, 0x39BD	; 0x8039bd <__iob+0x3>
    352c:	0e 94 35 15 	call	0x2a6a	; 0x2a6a <vfprintf>
    3530:	e2 e0       	ldi	r30, 0x02	; 2
    3532:	0c 94 3f 19 	jmp	0x327e	; 0x327e <__epilogue_restores__+0x20>

00003536 <__ultoa_invert>:
    3536:	fa 01       	movw	r30, r20
    3538:	aa 27       	eor	r26, r26
    353a:	28 30       	cpi	r18, 0x08	; 8
    353c:	51 f1       	breq	.+84     	; 0x3592 <__ultoa_invert+0x5c>
    353e:	20 31       	cpi	r18, 0x10	; 16
    3540:	81 f1       	breq	.+96     	; 0x35a2 <__ultoa_invert+0x6c>
    3542:	e8 94       	clt
    3544:	6f 93       	push	r22
    3546:	6e 7f       	andi	r22, 0xFE	; 254
    3548:	6e 5f       	subi	r22, 0xFE	; 254
    354a:	7f 4f       	sbci	r23, 0xFF	; 255
    354c:	8f 4f       	sbci	r24, 0xFF	; 255
    354e:	9f 4f       	sbci	r25, 0xFF	; 255
    3550:	af 4f       	sbci	r26, 0xFF	; 255
    3552:	b1 e0       	ldi	r27, 0x01	; 1
    3554:	3e d0       	rcall	.+124    	; 0x35d2 <__ultoa_invert+0x9c>
    3556:	b4 e0       	ldi	r27, 0x04	; 4
    3558:	3c d0       	rcall	.+120    	; 0x35d2 <__ultoa_invert+0x9c>
    355a:	67 0f       	add	r22, r23
    355c:	78 1f       	adc	r23, r24
    355e:	89 1f       	adc	r24, r25
    3560:	9a 1f       	adc	r25, r26
    3562:	a1 1d       	adc	r26, r1
    3564:	68 0f       	add	r22, r24
    3566:	79 1f       	adc	r23, r25
    3568:	8a 1f       	adc	r24, r26
    356a:	91 1d       	adc	r25, r1
    356c:	a1 1d       	adc	r26, r1
    356e:	6a 0f       	add	r22, r26
    3570:	71 1d       	adc	r23, r1
    3572:	81 1d       	adc	r24, r1
    3574:	91 1d       	adc	r25, r1
    3576:	a1 1d       	adc	r26, r1
    3578:	20 d0       	rcall	.+64     	; 0x35ba <__ultoa_invert+0x84>
    357a:	09 f4       	brne	.+2      	; 0x357e <__ultoa_invert+0x48>
    357c:	68 94       	set
    357e:	3f 91       	pop	r19
    3580:	2a e0       	ldi	r18, 0x0A	; 10
    3582:	26 9f       	mul	r18, r22
    3584:	11 24       	eor	r1, r1
    3586:	30 19       	sub	r19, r0
    3588:	30 5d       	subi	r19, 0xD0	; 208
    358a:	31 93       	st	Z+, r19
    358c:	de f6       	brtc	.-74     	; 0x3544 <__ultoa_invert+0xe>
    358e:	cf 01       	movw	r24, r30
    3590:	08 95       	ret
    3592:	46 2f       	mov	r20, r22
    3594:	47 70       	andi	r20, 0x07	; 7
    3596:	40 5d       	subi	r20, 0xD0	; 208
    3598:	41 93       	st	Z+, r20
    359a:	b3 e0       	ldi	r27, 0x03	; 3
    359c:	0f d0       	rcall	.+30     	; 0x35bc <__ultoa_invert+0x86>
    359e:	c9 f7       	brne	.-14     	; 0x3592 <__ultoa_invert+0x5c>
    35a0:	f6 cf       	rjmp	.-20     	; 0x358e <__ultoa_invert+0x58>
    35a2:	46 2f       	mov	r20, r22
    35a4:	4f 70       	andi	r20, 0x0F	; 15
    35a6:	40 5d       	subi	r20, 0xD0	; 208
    35a8:	4a 33       	cpi	r20, 0x3A	; 58
    35aa:	18 f0       	brcs	.+6      	; 0x35b2 <__ultoa_invert+0x7c>
    35ac:	49 5d       	subi	r20, 0xD9	; 217
    35ae:	31 fd       	sbrc	r19, 1
    35b0:	40 52       	subi	r20, 0x20	; 32
    35b2:	41 93       	st	Z+, r20
    35b4:	02 d0       	rcall	.+4      	; 0x35ba <__ultoa_invert+0x84>
    35b6:	a9 f7       	brne	.-22     	; 0x35a2 <__ultoa_invert+0x6c>
    35b8:	ea cf       	rjmp	.-44     	; 0x358e <__ultoa_invert+0x58>
    35ba:	b4 e0       	ldi	r27, 0x04	; 4
    35bc:	a6 95       	lsr	r26
    35be:	97 95       	ror	r25
    35c0:	87 95       	ror	r24
    35c2:	77 95       	ror	r23
    35c4:	67 95       	ror	r22
    35c6:	ba 95       	dec	r27
    35c8:	c9 f7       	brne	.-14     	; 0x35bc <__ultoa_invert+0x86>
    35ca:	00 97       	sbiw	r24, 0x00	; 0
    35cc:	61 05       	cpc	r22, r1
    35ce:	71 05       	cpc	r23, r1
    35d0:	08 95       	ret
    35d2:	9b 01       	movw	r18, r22
    35d4:	ac 01       	movw	r20, r24
    35d6:	0a 2e       	mov	r0, r26
    35d8:	06 94       	lsr	r0
    35da:	57 95       	ror	r21
    35dc:	47 95       	ror	r20
    35de:	37 95       	ror	r19
    35e0:	27 95       	ror	r18
    35e2:	ba 95       	dec	r27
    35e4:	c9 f7       	brne	.-14     	; 0x35d8 <__ultoa_invert+0xa2>
    35e6:	62 0f       	add	r22, r18
    35e8:	73 1f       	adc	r23, r19
    35ea:	84 1f       	adc	r24, r20
    35ec:	95 1f       	adc	r25, r21
    35ee:	a0 1d       	adc	r26, r0
    35f0:	08 95       	ret

000035f2 <_exit>:
    35f2:	f8 94       	cli

000035f4 <__stop_program>:
    35f4:	ff cf       	rjmp	.-2      	; 0x35f4 <__stop_program>
